./lib_i2s/i2s_master_test/bin/test_hil_i2s_master_test_16_0_4_4.xe: file format: xcore-xe

Loadable 1 for tile[0] (node "0", tile 0):

Disassembly of section .text (size: 332)

<_start>:
             0x00080000: 00 68:       ldc (ru6)       r0, 0x0
             0x00080002: 40 68:       ldc (ru6)       r1, 0x0
             0x00080004: 80 68:       ldc (ru6)       r2, 0x0
             0x00080006: c0 68:       ldc (ru6)       r3, 0x0
             0x00080008: 00 69:       ldc (ru6)       r4, 0x0
             0x0008000a: 40 69:       ldc (ru6)       r5, 0x0
             0x0008000c: 80 69:       ldc (ru6)       r6, 0x0
             0x0008000e: c0 69:       ldc (ru6)       r7, 0x0
             0x00080010: 00 6a:       ldc (ru6)       r8, 0x0
             0x00080012: 40 6a:       ldc (ru6)       r9, 0x0
             0x00080014: 00 f0 9a d8: ldap (lu10)     r11, 0x9a <.label0>
             0x00080018: fb 37:       set (1r)        cp, r11
             0x0008001a: 00 f0 a3 d8: ldap (lu10)     r11, 0xa3 <.label1>
             0x0008001e: eb 37:       set (1r)        dp, r11
             0x00080020: cb 6a:       ldc (ru6)       r11, 0xb
             0x00080022: bb ff ec 17: get (l2r)       r10, ps[r11]
             0x00080026: 80 f0 c0 6a: ldc (lru6)      r11, 0x2000
             0x0008002a: be 16:       add (3r)        r11, r11, r10
             0x0008002c: fb 2f:       set (1r)        sp, r11
             0x0008002e: c2 86:       getr (rus)      r0, 0x2
             0x00080030: 00 68:       ldc (ru6)       r0, 0x0
             0x00080032: 4f 68:       ldc (ru6)       r1, 0xf
             0x00080034: 00 f0 81 58: ldw (lru6)      r2, dp[0x1]
             0x00080038: 00 f0 50 d0: bl (lu10)       0x50 <write_sswitch_reg>
             0x0008003c: 00 68:       ldc (ru6)       r0, 0x0
             0x0008003e: 4f 68:       ldc (ru6)       r1, 0xf
             0x00080040: 00 f0 80 58: ldw (lru6)      r2, dp[0x0]
             0x00080044: 00 f0 4a d0: bl (lu10)       0x4a <write_sswitch_reg>
             0x00080048: 00 68:       ldc (ru6)       r0, 0x0
             0x0008004a: 4f 68:       ldc (ru6)       r1, 0xf
             0x0008004c: 00 f0 80 58: ldw (lru6)      r2, dp[0x0]
             0x00080050: 00 f0 44 d0: bl (lu10)       0x44 <write_sswitch_reg>
             0x00080054: 00 68:       ldc (ru6)       r0, 0x0
             0x00080056: 4f 68:       ldc (ru6)       r1, 0xf
             0x00080058: 00 f0 81 58: ldw (lru6)      r2, dp[0x1]
             0x0008005c: 00 f0 3e d0: bl (lu10)       0x3e <write_sswitch_reg>
             0x00080060: 00 68:       ldc (ru6)       r0, 0x0
             0x00080062: 4f 68:       ldc (ru6)       r1, 0xf
             0x00080064: 00 f0 80 58: ldw (lru6)      r2, dp[0x0]
             0x00080068: 00 f0 38 d0: bl (lu10)       0x38 <write_sswitch_reg>
             0x0008006c: 00 f0 82 58: ldw (lru6)      r2, dp[0x2]
             0x00080070: c1 86:       getr (rus)      r0, 0x1
             0x00080072: c4 b6:       in (2r)         r1, res[r0]
             0x00080074: 16 10:       add (3r)        r1, r1, r2
             0x00080076: 09 e8:       setc (ru6)      res[r0], 0x9
             0x00080078: d4 16:       setd (r2r)      res[r0], r1
             0x0008007a: c4 b6:       in (2r)         r1, res[r0]
             0x0008007c: 01 e8:       setc (ru6)      res[r0], 0x1
             0x0008007e: e0 17:       freer (1r)      res[r0]
             0x00080080: 00 68:       ldc (ru6)       r0, 0x0
             0x00080082: 47 68:       ldc (ru6)       r1, 0x7
             0x00080084: 80 68:       ldc (ru6)       r2, 0x0
             0x00080086: 00 f0 29 d0: bl (lu10)       0x29 <write_sswitch_reg>
             0x0008008a: 02 f0 40 69: ldc (lru6)      r5, 0x80
             0x0008008e: 02 f0 88 69: ldc (lru6)      r6, 0x88

<disableLinks>:
             0x00080092: 00 68:       ldc (ru6)       r0, 0x0
             0x00080094: d4 90:       add (2rus)      r1, r5, 0x0
             0x00080096: 80 68:       ldc (ru6)       r2, 0x0
             0x00080098: 00 f0 20 d0: bl (lu10)       0x20 <write_sswitch_reg>
             0x0008009c: 15 91:       add (2rus)      r5, r5, 0x1
             0x0008009e: 06 33:       eq (3r)         r0, r5, r6
             0x000800a0: 08 7c:       bf (ru6)        r0, -0x8 <disableLinks>
             0x000800a2: 00 68:       ldc (ru6)       r0, 0x0
             0x000800a4: 45 68:       ldc (ru6)       r1, 0x5
             0x000800a6: 00 f2 82 68: ldc (lru6)      r2, 0x8002
             0x000800aa: 00 f0 1c d0: bl (lu10)       0x1c <write_sswitch_reg_no_ack>

<nodeIdLoop>:
             0x000800ae: 00 f2 42 68: ldc (lru6)      r1, 0x8002
             0x000800b2: c2 86:       getr (rus)      r0, 0x2
             0x000800b4: e0 17:       freer (1r)      res[r0]
             0x000800b6: 81 ac:       shr (2rus)      r0, r0, 0x10
             0x000800b8: 01 30:       eq (3r)         r0, r0, r1
             0x000800ba: 07 7c:       bf (ru6)        r0, -0x7 <nodeIdLoop>

<setDimensionReg>:
             0x000800bc: 00 f2 02 68: ldc (lru6)      r0, 0x8002
             0x000800c0: 4c 68:       ldc (ru6)       r1, 0xc
             0x000800c2: 00 f0 83 58: ldw (lru6)      r2, dp[0x3]
             0x000800c6: 00 f0 09 d0: bl (lu10)       0x9 <write_sswitch_reg>
             0x000800ca: 00 f2 02 68: ldc (lru6)      r0, 0x8002
             0x000800ce: 4d 68:       ldc (ru6)       r1, 0xd
             0x000800d0: 00 f0 84 58: ldw (lru6)      r2, dp[0x4]
             0x000800d4: 00 f0 02 d0: bl (lu10)       0x2 <write_sswitch_reg>
             0x000800d8: 00 f0 32 d0: bl (lu10)       0x32 <_done>

<write_sswitch_reg>:
             0x000800dc: 0c f3 cc 68: ldc (lru6)      r3, 0xc30c
             0x000800e0: c1 6a:       ldc (ru6)       r11, 0x1
             0x000800e2: 00 f0 05 73: bu (lu6)        0x5 <write_switch_reg>

<write_sswitch_reg_no_ack>:
             0x000800e6: 0c f3 cc 68: ldc (lru6)      r3, 0xc30c
             0x000800ea: c0 6a:       ldc (ru6)       r11, 0x0
             0x000800ec: 00 f0 00 73: bu (lu6)        0x0 <write_switch_reg>

<write_switch_reg>:
             0x000800f0: 00 55:       stw (ru6)       r4, sp[0x0]
             0x000800f2: c1 ac:       shr (2rus)      r4, r0, 0x10
             0x000800f4: 1e 71:       bt (ru6)        r4, 0x1e <write_switch_reg_return_0>
             0x000800f6: c5 ac:       shr (2rus)      r4, r1, 0x10
             0x000800f8: 1c 71:       bt (ru6)        r4, 0x1c <write_switch_reg_return_0>
             0x000800fa: 81 a4:       shl (2rus)      r0, r0, 0x10
             0x000800fc: 03 40:       or (3r)         r0, r0, r3
             0x000800fe: 02 87:       getr (rus)      r4, 0x2
             0x00080100: 90 17:       setd (r2r)      res[r4], r0
             0x00080102: 03 f0 c0 68: ldc (lru6)      r3, 0xc0
             0x00080106: 03 4f:       outct (2r)      res[r4], r3
             0x00080108: c3 7a:       bf (ru6)        r11, 0x3 <build_return_no_ack>
             0x0008010a: 40 ad:       shr (2rus)      r0, r4, 0x8
             0x0008010c: 80 a4:       shl (2rus)      r0, r0, 0x8
             0x0008010e: 04 73:       bu (u6)         0x4 <write_switch_reg_send>

<build_return_no_ack>:
             0x00080110: 80 ac:       shr (2rus)      r0, r0, 0x8
             0x00080112: 3c a7:       mkmsk (rus)     r3, 0x8
             0x00080114: 03 40:       or (3r)         r0, r0, r3
             0x00080116: 80 a4:       shl (2rus)      r0, r0, 0x8

<write_switch_reg_send>:
             0x00080118: b4 ac:       shr (2rus)      r3, r1, 0x8
             0x0008011a: 03 40:       or (3r)         r0, r0, r3
             0x0008011c: 80 af:       out (r2r)       res[r4], r0
             0x0008011e: 94 0f:       outt (r2r)      res[r4], r1
             0x00080120: 88 af:       out (r2r)       res[r4], r2
             0x00080122: 11 4f:       outct (rus)     res[r4], 0x1
             0x00080124: c9 7a:       bf (ru6)        r11, 0x9 <write_switch_reg_free_and_return_1>
             0x00080126: 90 87:       inct (2r)       r0, res[r4]
             0x00080128: 03 b0:       eq (2rus)       r0, r0, 0x3
             0x0008012a: 11 cf:       chkct (rus)     res[r4], 0x1
             0x0008012c: e4 17:       freer (1r)      res[r4]
             0x0008012e: 00 5d:       ldw (ru6)       r4, sp[0x0]
             0x00080130: c0 77:       retsp (u6)      0x0

<write_switch_reg_return_0>:
             0x00080132: 00 68:       ldc (ru6)       r0, 0x0
             0x00080134: 00 5d:       ldw (ru6)       r4, sp[0x0]
             0x00080136: c0 77:       retsp (u6)      0x0

<write_switch_reg_free_and_return_1>:
             0x00080138: e4 17:       freer (1r)      res[r4]
             0x0008013a: 01 68:       ldc (ru6)       r0, 0x1
             0x0008013c: 00 5d:       ldw (ru6)       r4, sp[0x0]
             0x0008013e: c0 77:       retsp (u6)      0x0

<_done>:
             0x00080140: 07 68:       ldc (ru6)       r0, 0x7
             0x00080142: 00 f0 01 d0: bl (lu10)       0x1 <_DoSyscall>
.label2      0x00080146: 01 77:       bu (u6)         -0x1 <.label2>

<_DoSyscall>:
             0x00080148: d0 a6:       mkmsk (rus)     r0, 0x20
             0x0008014a: c0 77:       retsp (u6)      0x0

Disassembly of section .cp.rodata (size: 24)

<_cp>:
<.cp.rodata>:
<xs1g_link_ports>:
.label0      0x0008014c: 00 00 01 00: 
             0x00080150: 00 00 20 00: 
             0x00080154: 00 01 01 00: 
             0x00080158: 00 04 01 00: 
             0x0008015c: 00 00 10 00: 
             0x00080160: 00 05 01 00: 

Disassembly of section .dp.data (size: 20)

<_dp>:
<.dp.data>:
<appPLLCtrlReg_value>:
.label1      0x00080164: 00 31 00 08: 

<appPLLCtrlRegDisable_value>:
             0x00080168: 00 31 00 00: 

<delay0>:
             0x0008016c: 50 c3 00 00: 

<dirBits0>:
             0x00080170: 01 11 11 11: 

<dirBits1>:
             0x00080174: 11 11 11 11: 

Loadable 1 for tile[1] (node "0", tile 1):

Disassembly of section .text (size: 64)

<_start>:
             0x00080000: 00 68:       ldc (ru6)       r0, 0x0
             0x00080002: 40 68:       ldc (ru6)       r1, 0x0
             0x00080004: 80 68:       ldc (ru6)       r2, 0x0
             0x00080006: c0 68:       ldc (ru6)       r3, 0x0
             0x00080008: 00 69:       ldc (ru6)       r4, 0x0
             0x0008000a: 40 69:       ldc (ru6)       r5, 0x0
             0x0008000c: 80 69:       ldc (ru6)       r6, 0x0
             0x0008000e: c0 69:       ldc (ru6)       r7, 0x0
             0x00080010: 00 6a:       ldc (ru6)       r8, 0x0
             0x00080012: 40 6a:       ldc (ru6)       r9, 0x0
             0x00080014: 00 f0 14 d8: ldap (lu10)     r11, 0x14 <.label0>
             0x00080018: fb 37:       set (1r)        cp, r11
             0x0008001a: 00 f0 1d d8: ldap (lu10)     r11, 0x1d <.label1>
             0x0008001e: eb 37:       set (1r)        dp, r11
             0x00080020: cb 6a:       ldc (ru6)       r11, 0xb
             0x00080022: bb ff ec 17: get (l2r)       r10, ps[r11]
             0x00080026: 80 f0 c0 6a: ldc (lru6)      r11, 0x2000
             0x0008002a: be 16:       add (3r)        r11, r11, r10
             0x0008002c: fb 2f:       set (1r)        sp, r11
             0x0008002e: c2 86:       getr (rus)      r0, 0x2
             0x00080030: 00 f0 00 d0: bl (lu10)       0x0 <_done>

<_done>:
             0x00080034: 07 68:       ldc (ru6)       r0, 0x7
             0x00080036: 00 f0 01 d0: bl (lu10)       0x1 <_DoSyscall>
.label2      0x0008003a: 01 77:       bu (u6)         -0x1 <.label2>

<_DoSyscall>:
             0x0008003c: d0 a6:       mkmsk (rus)     r0, 0x20
             0x0008003e: c0 77:       retsp (u6)      0x0

Disassembly of section .cp.rodata (size: 24)

<_cp>:
<.cp.rodata>:
<xs1g_link_ports>:
.label0      0x00080040: 00 00 01 00: 
             0x00080044: 00 00 20 00: 
             0x00080048: 00 01 01 00: 
             0x0008004c: 00 04 01 00: 
             0x00080050: 00 00 10 00: 
             0x00080054: 00 05 01 00: 

Loadable 2 for tile[0] (node "0", tile 0):

Disassembly of section .crt (size: 204)

<.crt>:
<_start>:
             0x00080000: 4b 68:       ldc (ru6)       r1, 0xb
             0x00080002: 40 77:       entsp (u6)      0x0
             0x00080004: d1 fe ec 17: get (l2r)       r0, ps[r1]
             0x00080008: 04 f0 8b 68: ldc (lru6)      r2, 0x10b
             0x0008000c: c2 fe ec 1f: set (lr2r)      ps[r2], r0
             0x00080010: c3 86:       getr (rus)      r0, 0x3
             0x00080012: 4b d8:       ldap (u10)      r11, 0x4b <_InitChildThread>
             0x00080014: 02 73:       bu (u6)         0x2 <.label0>
.label1      0x00080016: 5d ff ec 07: init (l2r)      t[r1]:pc, r11
.label0      0x0008001a: d4 06:       getst (2r)      r1, res[r0]
             0x0008001c: 44 74:       bt (ru6)        r1, -0x4 <.label1>
             0x0008001e: f0 1f:       msync (1r)      res[r0]
             0x00080020: 46 d0:       bl (u10)        0x46 <_SetupThread>
             0x00080022: 00 f0 93 6f: ldw (lru6)      sp, cp[0x13]
             0x00080026: f0 17:       mjoin (1r)      res[r0]
             0x00080028: e0 17:       freer (1r)      res[r0]
             0x0008002a: 08 f0 0b 68: ldc (lru6)      r0, 0x20b
             0x0008002e: 02 f0 61 58: ldw (lru6)      r1, dp[0xa1]
             0x00080032: c4 fe ec 1f: set (lr2r)      ps[r0], r1
             0x00080036: 02 f0 22 60: ldaw (lru6)     r0, dp[0xa2]
             0x0008003a: 40 68:       ldc (ru6)       r1, 0x0
             0x0008003c: 00 f0 94 6c: ldw (lru6)      r2, cp[0x14]
             0x00080040: 00 f0 bc d3: bl (lu10)       0x3bc <.label2>
             0x00080044: 00 f0 0f 6c: ldw (lru6)      r0, cp[0xf]
             0x00080048: 40 68:       ldc (ru6)       r1, 0x0
             0x0008004a: 00 f0 95 6c: ldw (lru6)      r2, cp[0x15]
             0x0008004e: 00 f0 b5 d3: bl (lu10)       0x3b5 <.label2>
             0x00080052: 00 f0 10 6c: ldw (lru6)      r0, cp[0x10]
             0x00080056: 40 68:       ldc (ru6)       r1, 0x0
             0x00080058: 00 f0 96 6c: ldw (lru6)      r2, cp[0x16]
             0x0008005c: 00 f0 ae d3: bl (lu10)       0x3ae <.label2>
             0x00080060: 00 f0 b0 d3: bl (lu10)       0x3b0 <.label3>
             0x00080064: 00 f0 32 d0: bl (lu10)       0x32 <.label4>
             0x00080068: 00 f0 c6 6a: ldc (lru6)      r11, 0x6
             0x0008006c: c8 ea:       setc (ru6)      res[r11], 0x8
             0x0008006e: cf ea:       setc (ru6)      res[r11], 0xf
             0x00080070: 00 68:       ldc (ru6)       r0, 0x0
             0x00080072: 01 54:       stw (ru6)       r0, sp[0x1]
             0x00080074: 00 f0 40 68: ldc (lru6)      r1, 0x0
             0x00080078: 07 73:       bu (u6)         0x7 <_startExit>
             0x0008007a: ff 17:       nop (0r)        
             0x0008007c: ff 17:       nop (0r)        
             0x0008007e: ff 17:       nop (0r)        

<_TrapHandler>:
             0x00080080: 00 f0 40 77: entsp (lu6)     0x0
             0x00080084: 00 f0 1e 73: bu (lu6)        0x1e <_DoException> <.crt>

<_startExit>:
             0x00080088: 48 78:       bf (ru6)        r1, 0x8 <.label5>
             0x0008008a: 01 64:       ldaw (ru6)      r0, sp[0x1]
             0x0008008c: 00 f0 74 d3: bl (lu10)       0x374 <.label6>
             0x00080090: b0 f8 ec 97: ashr (l2rus)    r11, r0, 0x20
             0x00080094: c2 7a:       bf (ru6)        r11, 0x2 <.label5>
             0x00080096: 01 90:       add (2rus)      r0, r0, 0x1
             0x00080098: f0 4f:       ecallt (1r)     r0
.label5      0x0008009a: 41 64:       ldaw (ru6)      r1, sp[0x1]
             0x0008009c: 00 f0 1c d1: bl (lu10)       0x11c <.label7>
             0x000800a0: 02 70:       bt (ru6)        r0, 0x2 <.label8>
             0x000800a2: 00 f0 71 d3: bl (lu10)       0x371 <.label9>
.label8      0x000800a6: 00 f0 7b d3: bl (lu10)       0x37b <.label10>

<_InitChildThread>:
             0x000800aa: 01 d0:       bl (u10)        0x1 <_SetupThread>
             0x000800ac: ee 07:       ssync (0r)      

<_SetupThread>:
             0x000800ae: 18 dc:       ldap (u10)      r11, -0x18 <_TrapHandler>
             0x000800b0: ff 07:       set (0r)        kep, r11
             0x000800b2: 02 f0 ef d9: ldap (lu10)     r11, 0x9ef <.label11>
             0x000800b6: fb 37:       set (1r)        cp, r11
             0x000800b8: 00 f0 4e 6f: ldw (lru6)      dp, cp[0xe]
             0x000800bc: c0 6a:       ldc (ru6)       r11, 0x0
             0x000800be: fb 2f:       set (1r)        sp, r11
             0x000800c0: c0 77:       retsp (u6)      0x0

<__register_frame_info_bases>:
             0x000800c2: c0 77:       retsp (u6)      0x0

<_DoException>:
<.crt>:
             0x000800c4: 00 f0 40 77: entsp (lu6)     0x0
             0x000800c8: ed 07:       clre (0r)       
             0x000800ca: ec 07:       waiteu (0r)     

Disassembly of section .init (size: 26)

<_init>:
<.init>:
.label4      0x000800cc: 42 77:       entsp (u6)      0x2

<.init>:
             0x000800ce: 01 f0 23 d0: bl (lu10)       0x423 <.label12>
             0x000800d2: 00 f0 18 6d: ldw (lru6)      r4, cp[0x18]
             0x000800d6: 06 79:       bf (ru6)        r4, 0x6 <do_ctors_end> <.init>
             0x000800d8: 00 f0 51 6d: ldw (lru6)      r5, cp[0x11]

<do_ctors_loop>:
             0x000800dc: 01 99:       sub (2rus)      r4, r4, 0x1
             0x000800de: 04 4b:       ldw (3r)        r0, r5[r4]
             0x000800e0: e0 27:       bla (1r)        r0
             0x000800e2: 04 75:       bt (ru6)        r4, -0x4 <do_ctors_loop>

<do_ctors_end>:
<.init>:
             0x000800e4: c2 77:       retsp (u6)      0x2

Disassembly of section .fini (size: 46)

<.fini>:
<_fini>:
.label66     0x000800e6: 42 77:       entsp (u6)      0x2

<.fini>:
             0x000800e8: 84 77:       extsp (u6)      0x4
             0x000800ea: 01 55:       stw (ru6)       r4, sp[0x1]
             0x000800ec: 42 55:       stw (ru6)       r5, sp[0x2]
             0x000800ee: 83 55:       stw (ru6)       r6, sp[0x3]
             0x000800f0: 00 f0 97 6d: ldw (lru6)      r6, cp[0x17]
             0x000800f4: 88 79:       bf (ru6)        r6, 0x8 <do_dtors_end>
             0x000800f6: 00 69:       ldc (ru6)       r4, 0x0
             0x000800f8: 00 f0 52 6d: ldw (lru6)      r5, cp[0x12]

<do_dtors_loop>:
             0x000800fc: 04 4b:       ldw (3r)        r0, r5[r4]
             0x000800fe: e0 27:       bla (1r)        r0
             0x00080100: 01 91:       add (2rus)      r4, r4, 0x1
             0x00080102: b2 cb:       lsu (3r)        r11, r4, r6
             0x00080104: c5 76:       bt (ru6)        r11, -0x5 <do_dtors_loop>

<do_dtors_end>:
             0x00080106: 00 f0 67 d3: bl (lu10)       0x367 <.label13>
             0x0008010a: 01 5d:       ldw (ru6)       r4, sp[0x1]
             0x0008010c: 42 5d:       ldw (ru6)       r5, sp[0x2]
             0x0008010e: 83 5d:       ldw (ru6)       r6, sp[0x3]
             0x00080110: 84 67:       ldaw (ru6)      sp, sp[0x4]

<.fini>:
             0x00080112: c2 77:       retsp (u6)      0x2

Disassembly of section .text (size: 4992)

<i2s_send>:
             0x00080114: 00 f0 40 77: entsp (lu6)     0x0
             0x00080118: 82 77:       extsp (u6)      0x2
             0x0008011a: 00 55:       stw (ru6)       r4, sp[0x0]
             0x0008011c: 4f 78:       bf (ru6)        r1, 0xf <.label14>
             0x0008011e: 02 f0 25 60: ldaw (lru6)     r0, dp[0xa5]
             0x00080122: 00 f0 c8 60: ldaw (lru6)     r3, dp[0x8]
.label15     0x00080126: b0 08:       ldw (2rus)      r11, r0[0x0]
             0x00080128: cf 4c:       ldw (3r)        r4, r3[r11]
             0x0008012a: 48 00:       stw (2rus)      r4, r2[0x0]
             0x0008012c: 3d 92:       add (2rus)      r11, r11, 0x1
             0x0008012e: b0 00:       stw (2rus)      r11, r0[0x0]
             0x00080130: 40 92:       add (2rus)      r0, r0, 0x4
             0x00080132: 68 92:       add (2rus)      r2, r2, 0x4
             0x00080134: 15 98:       sub (2rus)      r1, r1, 0x1
             0x00080136: bc fc ec 9f: ldaw (l2rus)    r3, r3[0x8]
             0x0008013a: 4b 74:       bt (ru6)        r1, -0xb <.label15>
.label14     0x0008013c: 00 5d:       ldw (ru6)       r4, sp[0x0]
             0x0008013e: 82 67:       ldaw (ru6)      sp, sp[0x2]
             0x00080140: c0 77:       retsp (u6)      0x0
             0x00080142: 00 00:       stw (2rus)      r0, r0[0x0]

<i2s_receive>:
             0x00080144: 00 f0 40 77: entsp (lu6)     0x0
             0x00080148: 84 77:       extsp (u6)      0x4
             0x0008014a: 04 f9 ec f7: std (l2rus)     r5, r4, sp[0x0]
             0x0008014e: 82 55:       stw (ru6)       r6, sp[0x2]
             0x00080150: 56 78:       bf (ru6)        r1, 0x16 <.label16>
             0x00080152: 02 f0 2d 60: ldaw (lru6)     r0, dp[0xad]
             0x00080156: 01 f0 c8 62: ldaw (lru6)     r11, dp[0x48]
             0x0008015a: 02 f0 f5 58: ldw (lru6)      r3, dp[0xb5]
.label17     0x0008015e: 40 08:       ldw (2rus)      r4, r0[0x0]
             0x00080160: 58 08:       ldw (2rus)      r5, r2[0x0]
             0x00080162: 2c 4c:       ldw (3r)        r6, r11[r4]
             0x00080164: 56 33:       eq (3r)         r5, r5, r6
             0x00080166: 14 b1:       eq (2rus)       r5, r5, 0x0
             0x00080168: f7 40:       or (3r)         r3, r5, r3
             0x0008016a: 01 91:       add (2rus)      r4, r4, 0x1
             0x0008016c: 40 00:       stw (2rus)      r4, r0[0x0]
             0x0008016e: 40 92:       add (2rus)      r0, r0, 0x4
             0x00080170: 68 92:       add (2rus)      r2, r2, 0x4
             0x00080172: 15 98:       sub (2rus)      r1, r1, 0x1
             0x00080174: bc fe ec 9f: ldaw (l2rus)    r11, r11[0x8]
             0x00080178: 4e 74:       bt (ru6)        r1, -0xe <.label17>
             0x0008017a: 02 f0 f5 50: stw (lru6)      r3, dp[0xb5]
.label16     0x0008017e: 82 5d:       ldw (ru6)       r6, sp[0x2]
             0x00080180: 04 f9 ec ef: ldd (l2rus)     r5, r4, sp[0x0]
             0x00080184: 84 67:       ldaw (ru6)      sp, sp[0x4]
             0x00080186: c0 77:       retsp (u6)      0x0

<i2s_restart_check>:
             0x00080188: 00 f0 40 77: entsp (lu6)     0x0
             0x0008018c: 02 f0 36 58: ldw (lru6)      r0, dp[0xb6]
             0x00080190: 01 90:       add (2rus)      r0, r0, 0x1
             0x00080192: 02 f0 36 50: stw (lru6)      r0, dp[0xb6]
             0x00080196: 40 b2:       eq (2rus)       r0, r0, 0x4
             0x00080198: c0 77:       retsp (u6)      0x0
             0x0008019a: 00 00:       stw (2rus)      r0, r0[0x0]

<i2s_init>:
             0x0008019c: 00 f0 46 77: entsp (lu6)     0x6
             0x000801a0: 05 f9 ec f7: std (l2rus)     r5, r4, sp[0x1]
             0x000801a4: 2e f9 ec f7: std (l2rus)     r7, r6, sp[0x2]
             0x000801a8: 54 90:       add (2rus)      r5, r1, 0x0
             0x000801aa: 00 69:       ldc (ru6)       r4, 0x0
             0x000801ac: 02 f0 b7 61: ldaw (lru6)     r6, dp[0xb7]
             0x000801b0: 08 8b:       ld8u (3r)       r0, r6[r4]
             0x000801b2: 36 78:       bf (ru6)        r0, 0x36 <.label18>
             0x000801b4: 02 f0 54 58: ldw (lru6)      r1, dp[0x94]
             0x000801b8: 02 f0 16 58: ldw (lru6)      r0, dp[0x96]
.label19     0x000801bc: c8 b6:       in (2r)         r2, res[r0]
             0x000801be: 82 7c:       bf (ru6)        r2, -0x2 <.label19>
             0x000801c0: 1d a7:       mkmsk (rus)     r7, 0x1
             0x000801c2: 0d af:       out (r2r)       res[r1], r7
             0x000801c4: 01 af:       out (r2r)       res[r1], r4
             0x000801c6: 49 68:       ldc (ru6)       r1, 0x9
             0x000801c8: ec 90:       add (2rus)      r2, r7, 0x0
.label21     0x000801ca: cc b6:       in (2r)         r3, res[r0]
             0x000801cc: b6 c0:       lss (3r)        r11, r1, r2
             0x000801ce: c2 72:       bt (ru6)        r11, 0x2 <.label20>
             0x000801d0: 29 90:       add (2rus)      r2, r2, 0x1
             0x000801d2: c5 74:       bt (ru6)        r3, -0x5 <.label21>
.label20     0x000801d4: 02 f0 35 58: ldw (lru6)      r0, dp[0xb5]
             0x000801d8: 03 40:       or (3r)         r0, r0, r3
             0x000801da: 02 f0 35 50: stw (lru6)      r0, dp[0xb5]
             0x000801de: 05 78:       bf (ru6)        r0, 0x5 <.label22>
             0x000801e0: 00 f0 5b 7f: ldaw (lu6)      r11, cp[0x1b]
             0x000801e4: 8c 91:       add (2rus)      r0, r11, 0x0
             0x000801e6: 00 f0 03 d3: bl (lu10)       0x303 <puts>
.label22     0x000801ea: 02 f0 57 58: ldw (lru6)      r1, dp[0x97]
             0x000801ee: 02 f0 38 60: ldaw (lru6)     r0, dp[0xb8]
             0x000801f2: 00 f0 a0 6c: ldw (lru6)      r2, cp[0x20]
             0x000801f6: ee f2 c0 68: ldc (lru6)      r3, 0xbb80
.label26     0x000801fa: f4 b2:       eq (2rus)       r11, r1, 0x4
             0x000801fc: c9 7a:       bf (ru6)        r11, 0x9 <.label23>
             0x000801fe: 02 f0 d7 51: stw (lru6)      r7, dp[0x97]
             0x00080202: 50 8a:       ld8u (3r)       r1, r0[r4]
             0x00080204: 01 f0 65 70: bt (lru6)       r1, 0x65 <.label24>
             0x00080208: b0 fa ec 8f: st8 (l3r)       r7, r0[r4]
             0x0008020c: dc 90:       add (2rus)      r1, r7, 0x0
             0x0008020e: 03 73:       bu (u6)         0x3 <.label25>
.label23     0x00080210: 15 90:       add (2rus)      r1, r1, 0x1
             0x00080212: 02 f0 57 50: stw (lru6)      r1, dp[0x97]
.label25     0x00080216: f5 92:       add (2rus)      r11, r1, 0x5
             0x00080218: 3b 2d:       shr (3r)        r11, r2, r11
             0x0008021a: 3f cd:       lsu (3r)        r11, r3, r11
             0x0008021c: d2 76:       bt (ru6)        r11, -0x12 <.label26>
             0x0008021e: 02 73:       bu (u6)         0x2 <.label27>
.label18     0x00080220: 02 f0 57 58: ldw (lru6)      r1, dp[0x97]
.label27     0x00080224: d1 a6:       mkmsk (rus)     r0, 0x1
             0x00080226: 11 20:       shl (3r)        r1, r0, r1
             0x00080228: d4 00:       stw (2rus)      r1, r5[0x0]
             0x0008022a: 02 f0 36 51: stw (lru6)      r4, dp[0xb6]
             0x0008022e: 02 f0 35 51: stw (lru6)      r4, dp[0xb5]
             0x00080232: 08 fb ec 8f: st8 (l3r)       r0, r6[r4]
             0x00080236: 02 f0 38 60: ldaw (lru6)     r0, dp[0xb8]
             0x0008023a: 40 8a:       ld8u (3r)       r0, r0[r4]
             0x0008023c: c5 00:       stw (2rus)      r0, r5[0x1]
             0x0008023e: 02 f0 25 60: ldaw (lru6)     r0, dp[0xa5]
             0x00080242: a0 69:       ldc (ru6)       r6, 0x20
             0x00080244: d0 90:       add (2rus)      r1, r4, 0x0
             0x00080246: e8 90:       add (2rus)      r2, r6, 0x0
             0x00080248: 00 f0 b8 d2: bl (lu10)       0x2b8 <memset>
             0x0008024c: 02 f0 2d 60: ldaw (lru6)     r0, dp[0xad]
             0x00080250: d0 90:       add (2rus)      r1, r4, 0x0
             0x00080252: e8 90:       add (2rus)      r2, r6, 0x0
             0x00080254: 00 f0 b2 d2: bl (lu10)       0x2b2 <memset>
             0x00080258: 24 09:       ldw (2rus)      r6, r5[0x0]
             0x0008025a: c5 08:       ldw (2rus)      r0, r5[0x1]
             0x0008025c: 50 b0:       eq (2rus)       r5, r0, 0x0
             0x0008025e: 02 f0 14 58: ldw (lru6)      r0, dp[0x94]
             0x00080262: 00 af:       out (r2r)       res[r0], r4
             0x00080264: 02 f0 55 58: ldw (lru6)      r1, dp[0x95]
             0x00080268: 02 f0 bb 68: ldc (lru6)      r2, 0xbb
             0x0008026c: 00 f0 e4 d0: bl (lu10)       0xe4 <send_data_to_tester>
             0x00080270: 02 f0 14 58: ldw (lru6)      r0, dp[0x94]
             0x00080274: 02 f0 55 58: ldw (lru6)      r1, dp[0x95]
             0x00080278: 00 f0 a0 6c: ldw (lru6)      r2, cp[0x20]
             0x0008027c: 00 f0 dc d0: bl (lu10)       0xdc <send_data_to_tester>
             0x00080280: 02 f0 14 58: ldw (lru6)      r0, dp[0x94]
             0x00080284: 02 f0 55 58: ldw (lru6)      r1, dp[0x95]
             0x00080288: e8 90:       add (2rus)      r2, r6, 0x0
             0x0008028a: 00 f0 d5 d0: bl (lu10)       0xd5 <send_data_to_tester>
             0x0008028e: 02 f0 14 58: ldw (lru6)      r0, dp[0x94]
             0x00080292: 02 f0 55 58: ldw (lru6)      r1, dp[0x95]
             0x00080296: 04 69:       ldc (ru6)       r4, 0x4
             0x00080298: e0 90:       add (2rus)      r2, r4, 0x0
             0x0008029a: 00 f0 cd d0: bl (lu10)       0xcd <send_data_to_tester>
             0x0008029e: 02 f0 14 58: ldw (lru6)      r0, dp[0x94]
             0x000802a2: 02 f0 55 58: ldw (lru6)      r1, dp[0x95]
             0x000802a6: e0 90:       add (2rus)      r2, r4, 0x0
             0x000802a8: 00 f0 c6 d0: bl (lu10)       0xc6 <send_data_to_tester>
             0x000802ac: 02 f0 14 58: ldw (lru6)      r0, dp[0x94]
             0x000802b0: 02 f0 55 58: ldw (lru6)      r1, dp[0x95]
             0x000802b4: 90 68:       ldc (ru6)       r2, 0x10
             0x000802b6: 00 f0 bf d0: bl (lu10)       0xbf <send_data_to_tester>
             0x000802ba: 02 f0 14 58: ldw (lru6)      r0, dp[0x94]
             0x000802be: 02 f0 55 58: ldw (lru6)      r1, dp[0x95]
             0x000802c2: e4 90:       add (2rus)      r2, r5, 0x0
             0x000802c4: 00 f0 b8 d0: bl (lu10)       0xb8 <send_data_to_tester>
             0x000802c8: 2e f9 ec ef: ldd (l2rus)     r7, r6, sp[0x2]
             0x000802cc: 05 f9 ec ef: ldd (l2rus)     r5, r4, sp[0x1]
             0x000802d0: c6 77:       retsp (u6)      0x6
.label24     0x000802d2: d1 a6:       mkmsk (rus)     r0, 0x1
             0x000802d4: 00 f0 88 d2: bl (lu10)       0x288 <_Exit>

<main>:
.label7      0x000802d8: 00 f0 4e 77: entsp (lu6)     0xe
             0x000802dc: 0c 55:       stw (ru6)       r4, sp[0xc]
             0x000802de: 00 f0 42 7f: ldaw (lu6)      r11, cp[0x2]
             0x000802e2: 07 64:       ldaw (ru6)      r0, sp[0x7]
             0x000802e4: 94 68:       ldc (ru6)       r2, 0x14
             0x000802e6: 9c 91:       add (2rus)      r1, r11, 0x0
             0x000802e8: 00 f0 c6 d2: bl (lu10)       0x2c6 <__memcpy_4> <memcpy>
             0x000802ec: 02 f0 14 58: ldw (lru6)      r0, dp[0x94]
             0x000802f0: 08 e8:       setc (ru6)      res[r0], 0x8
             0x000802f2: 02 f0 15 58: ldw (lru6)      r0, dp[0x95]
             0x000802f6: 08 e8:       setc (ru6)      res[r0], 0x8
             0x000802f8: 02 f0 16 58: ldw (lru6)      r0, dp[0x96]
             0x000802fc: 08 e8:       setc (ru6)      res[r0], 0x8
             0x000802fe: 02 f0 10 58: ldw (lru6)      r0, dp[0x90]
             0x00080302: 08 e8:       setc (ru6)      res[r0], 0x8
             0x00080304: 02 f0 11 58: ldw (lru6)      r0, dp[0x91]
             0x00080308: 08 e8:       setc (ru6)      res[r0], 0x8
             0x0008030a: 01 f0 06 68: ldc (lru6)      r0, 0x46
             0x0008030e: 40 64:       ldaw (ru6)      r1, sp[0x0]
             0x00080310: 02 90:       add (2rus)      r0, r0, 0x2
             0x00080312: 24 f8 ec 27: ldaw (l3r)      r2, r1[-r0]
             0x00080316: 03 87:       getr (rus)      r4, 0x3
             0x00080318: 9c 07:       getst (2r)      r3, res[r4]
             0x0008031a: 00 f0 89 d8: ldap (lu10)     r11, 0x89 <__xcore_ugs_shim_spin>
             0x0008031e: 8c 91:       add (2rus)      r0, r11, 0x0
             0x00080320: d3 fe ec 07: init (l2r)      t[r3]:pc, r0
             0x00080324: cb fe ec 07: init (l2r)      t[r3]:sp, r2
             0x00080328: 00 f0 47 7f: ldaw (lu6)      r11, cp[0x7]
             0x0008032c: 8f f9 ec b7: set (l3r)       t[r3]:r0, r11
             0x00080330: 00 f0 b8 da: ldap (lu10)     r11, 0x2b8 <__xcore_synchronised_thread_end>
             0x00080334: 9c 91:       add (2rus)      r1, r11, 0x0
             0x00080336: c7 fe ec 17: init (l2r)      t[r3]:lr, r1
             0x0008033a: 00 f0 c2 68: ldc (lru6)      r3, 0x2
             0x0008033e: 2b f8 ec 27: ldaw (l3r)      r2, r2[-r3]
             0x00080342: 9c 07:       getst (2r)      r3, res[r4]
             0x00080344: d3 fe ec 07: init (l2r)      t[r3]:pc, r0
             0x00080348: cb fe ec 07: init (l2r)      t[r3]:sp, r2
             0x0008034c: 00 f0 48 7f: ldaw (lu6)      r11, cp[0x8]
             0x00080350: 8f f9 ec b7: set (l3r)       t[r3]:r0, r11
             0x00080354: c7 fe ec 17: init (l2r)      t[r3]:lr, r1
             0x00080358: 00 f0 c2 68: ldc (lru6)      r3, 0x2
             0x0008035c: 2b f8 ec 27: ldaw (l3r)      r2, r2[-r3]
             0x00080360: 9c 07:       getst (2r)      r3, res[r4]
             0x00080362: d3 fe ec 07: init (l2r)      t[r3]:pc, r0
             0x00080366: cb fe ec 07: init (l2r)      t[r3]:sp, r2
             0x0008036a: 00 f0 49 7f: ldaw (lu6)      r11, cp[0x9]
             0x0008036e: 8f f9 ec b7: set (l3r)       t[r3]:r0, r11
             0x00080372: c7 fe ec 17: init (l2r)      t[r3]:lr, r1
             0x00080376: 00 f0 c2 68: ldc (lru6)      r3, 0x2
             0x0008037a: 2b f8 ec 27: ldaw (l3r)      r2, r2[-r3]
             0x0008037e: 9c 07:       getst (2r)      r3, res[r4]
             0x00080380: d3 fe ec 07: init (l2r)      t[r3]:pc, r0
             0x00080384: cb fe ec 07: init (l2r)      t[r3]:sp, r2
             0x00080388: 00 f0 4a 7f: ldaw (lu6)      r11, cp[0xa]
             0x0008038c: 8f f9 ec b7: set (l3r)       t[r3]:r0, r11
             0x00080390: c7 fe ec 17: init (l2r)      t[r3]:lr, r1
             0x00080394: 00 f0 c2 68: ldc (lru6)      r3, 0x2
             0x00080398: 2b f8 ec 27: ldaw (l3r)      r2, r2[-r3]
             0x0008039c: 9c 07:       getst (2r)      r3, res[r4]
             0x0008039e: d3 fe ec 07: init (l2r)      t[r3]:pc, r0
             0x000803a2: cb fe ec 07: init (l2r)      t[r3]:sp, r2
             0x000803a6: 00 f0 4b 7f: ldaw (lu6)      r11, cp[0xb]
             0x000803aa: 8f f9 ec b7: set (l3r)       t[r3]:r0, r11
             0x000803ae: c7 fe ec 17: init (l2r)      t[r3]:lr, r1
             0x000803b2: 00 f0 c2 68: ldc (lru6)      r3, 0x2
             0x000803b6: 2b f8 ec 27: ldaw (l3r)      r2, r2[-r3]
             0x000803ba: 9c 07:       getst (2r)      r3, res[r4]
             0x000803bc: d3 fe ec 07: init (l2r)      t[r3]:pc, r0
             0x000803c0: cb fe ec 07: init (l2r)      t[r3]:sp, r2
             0x000803c4: 00 f0 4c 7f: ldaw (lu6)      r11, cp[0xc]
             0x000803c8: 8f f9 ec b7: set (l3r)       t[r3]:r0, r11
             0x000803cc: c7 fe ec 17: init (l2r)      t[r3]:lr, r1
             0x000803d0: 00 f0 c2 68: ldc (lru6)      r3, 0x2
             0x000803d4: 2b f8 ec 27: ldaw (l3r)      r2, r2[-r3]
             0x000803d8: 9c 07:       getst (2r)      r3, res[r4]
             0x000803da: d3 fe ec 07: init (l2r)      t[r3]:pc, r0
             0x000803de: cb fe ec 07: init (l2r)      t[r3]:sp, r2
             0x000803e2: 00 f0 4d 7f: ldaw (lu6)      r11, cp[0xd]
             0x000803e6: 8f f9 ec b7: set (l3r)       t[r3]:r0, r11
             0x000803ea: c7 fe ec 17: init (l2r)      t[r3]:lr, r1
             0x000803ee: 00 68:       ldc (ru6)       r0, 0x0
             0x000803f0: 1b 70:       bt (ru6)        r0, 0x1b <.label28>
             0x000803f2: f4 1f:       msync (1r)      res[r4]
             0x000803f4: 02 f0 11 58: ldw (lru6)      r0, dp[0x91]
             0x000803f8: 02 f0 52 58: ldw (lru6)      r1, dp[0x92]
             0x000803fc: 02 f0 90 58: ldw (lru6)      r2, dp[0x90]
             0x00080400: 02 f0 d3 58: ldw (lru6)      r3, dp[0x93]
             0x00080404: 2e f8 ec f7: std (l2rus)     r3, r2, sp[0x2]
             0x00080408: 05 f8 ec f7: std (l2rus)     r1, r0, sp[0x1]
             0x0008040c: 84 68:       ldc (ru6)       r2, 0x4
             0x0008040e: 81 54:       stw (ru6)       r2, sp[0x1]
             0x00080410: 00 f0 44 60: ldaw (lru6)     r1, dp[0x4]
             0x00080414: 00 f0 c0 60: ldaw (lru6)     r3, dp[0x0]
             0x00080418: 07 64:       ldaw (ru6)      r0, sp[0x7]
             0x0008041a: 00 f0 17 d0: bl (lu10)       0x17 <i2s_master>
             0x0008041e: f4 17:       mjoin (1r)      res[r4]
             0x00080420: e4 17:       freer (1r)      res[r4]
             0x00080422: 00 68:       ldc (ru6)       r0, 0x0
             0x00080424: 0c 5d:       ldw (ru6)       r4, sp[0xc]
             0x00080426: ce 77:       retsp (u6)      0xe
.label28     0x00080428: 00 68:       ldc (ru6)       r0, 0x0
             0x0008042a: 06 54:       stw (ru6)       r0, sp[0x6]
             0x0008042c: 06 5c:       ldw (ru6)       r0, sp[0x6]
             0x0008042e: e0 27:       bla (1r)        r0

<__xcore_ugs_shim_spin>:
             0x00080430: 00 f0 40 77: entsp (lu6)     0x0
.label29     0x00080434: 01 77:       bu (u6)         -0x1 <.label29>
             0x00080436: 00 00:       stw (2rus)      r0, r0[0x0]

<send_data_to_tester>:
             0x00080438: 00 f0 40 77: entsp (lu6)     0x0
             0x0008043c: c9 ae:       out (r2r)       res[r1], r2
             0x0008043e: f1 87:       syncr (1r)      res[r1]
             0x00080440: d5 a6:       mkmsk (rus)     r1, 0x1
             0x00080442: c4 ae:       out (r2r)       res[r0], r1
             0x00080444: 40 68:       ldc (ru6)       r1, 0x0
             0x00080446: c4 ae:       out (r2r)       res[r0], r1
             0x00080448: f0 87:       syncr (1r)      res[r0]
             0x0008044a: c0 77:       retsp (u6)      0x0

<i2s_master>:
             0x0008044c: 00 f0 56 77: entsp (lu6)     0x16
             0x00080450: 47 fb ec f7: std (l2rus)     r5, r4, sp[0x7]
             0x00080454: ac fd ec f7: std (l2rus)     r7, r6, sp[0x8]
             0x00080458: 85 fe ec f7: std (l2rus)     r9, r8, sp[0x9]
             0x0008045c: 94 56:       stw (ru6)       r10, sp[0x14]
             0x0008045e: 68 90:       add (2rus)      r6, r2, 0x0
             0x00080460: 0a 54:       stw (ru6)       r0, sp[0xa]
             0x00080462: 1a 5c:       ldw (ru6)       r0, sp[0x1a]
             0x00080464: 9b 5c:       ldw (ru6)       r2, sp[0x1b]
             0x00080466: 88 54:       stw (ru6)       r2, sp[0x8]
             0x00080468: 06 54:       stw (ru6)       r0, sp[0x6]
             0x0008046a: 18 5c:       ldw (ru6)       r0, sp[0x18]
             0x0008046c: 19 5e:       ldw (ru6)       r8, sp[0x19]
             0x0008046e: 09 54:       stw (ru6)       r0, sp[0x9]
             0x00080470: 57 5e:       ldw (ru6)       r9, sp[0x17]
             0x00080472: 07 40:       or (3r)         r0, r1, r3
             0x00080474: 74 90:       add (2rus)      r7, r1, 0x0
             0x00080476: 5c 90:       add (2rus)      r5, r3, 0x0
             0x00080478: 00 b0:       eq (2rus)       r0, r0, 0x0
             0x0008047a: 00 b0:       eq (2rus)       r0, r0, 0x0
             0x0008047c: 07 54:       stw (ru6)       r0, sp[0x7]
             0x0008047e: 00 69:       ldc (ru6)       r4, 0x0
             0x00080480: 88 5e:       ldw (ru6)       r10, sp[0x8]
.label31     0x00080482: 0d 55:       stw (ru6)       r4, sp[0xd]
             0x00080484: 0c 55:       stw (ru6)       r4, sp[0xc]
             0x00080486: 0b 55:       stw (ru6)       r4, sp[0xb]
             0x00080488: 0a 5c:       ldw (ru6)       r0, sp[0xa]
             0x0008048a: 20 08:       ldw (2rus)      r2, r0[0x0]
             0x0008048c: 40 0a:       ldw (2rus)      r0, r0[0x4]
             0x0008048e: 4b 64:       ldaw (ru6)      r1, sp[0xb]
             0x00080490: e2 27:       bla (1r)        r2
             0x00080492: 07 5c:       ldw (ru6)       r0, sp[0x7]
             0x00080494: 31 78:       bf (ru6)        r0, 0x31 <.label30>
             0x00080496: 0b 5c:       ldw (ru6)       r0, sp[0xb]
             0x00080498: 88 ea:       setc (ru6)      res[r10], 0x8
             0x0008049a: 46 5c:       ldw (ru6)       r1, sp[0x6]
             0x0008049c: 36 ff ec 0f: setclk (lr2r)   res[r10], r1
             0x000804a0: 01 a8:       shr (2rus)      r0, r0, 0x1
             0x000804a2: 32 17:       setd (r2r)      res[r10], r0
             0x000804a4: 09 fa ec f7: std (l2rus)     r10, r8, sp[0x1]
             0x000804a8: 09 5c:       ldw (ru6)       r0, sp[0x9]
             0x000804aa: 01 54:       stw (ru6)       r0, sp[0x1]
             0x000804ac: cc 90:       add (2rus)      r0, r7, 0x0
             0x000804ae: d8 90:       add (2rus)      r1, r6, 0x0
             0x000804b0: e4 90:       add (2rus)      r2, r5, 0x0
             0x000804b2: b4 91:       add (2rus)      r3, r9, 0x0
             0x000804b4: 00 f0 24 d0: bl (lu10)       0x24 <i2s_init_ports>
             0x000804b8: 0c 5c:       ldw (ru6)       r0, sp[0xc]
             0x000804ba: 21 fa ec f7: std (l2rus)     r8, r10, sp[0x1]
             0x000804be: 04 54:       stw (ru6)       r0, sp[0x4]
             0x000804c0: 41 56:       stw (ru6)       r9, sp[0x1]
             0x000804c2: 0a 5c:       ldw (ru6)       r0, sp[0xa]
             0x000804c4: dc 90:       add (2rus)      r1, r7, 0x0
             0x000804c6: e8 90:       add (2rus)      r2, r6, 0x0
             0x000804c8: f4 90:       add (2rus)      r3, r5, 0x0
             0x000804ca: 00 f0 51 d0: bl (lu10)       0x51 <i2s_ratio_n>
             0x000804ce: 02 b0:       eq (2rus)       r0, r0, 0x2
             0x000804d0: 28 7c:       bf (ru6)        r0, -0x28 <.label31>
             0x000804d2: 02 56:       stw (ru6)       r8, sp[0x2]
             0x000804d4: 09 5c:       ldw (ru6)       r0, sp[0x9]
             0x000804d6: 01 54:       stw (ru6)       r0, sp[0x1]
             0x000804d8: cc 90:       add (2rus)      r0, r7, 0x0
             0x000804da: d8 90:       add (2rus)      r1, r6, 0x0
             0x000804dc: e4 90:       add (2rus)      r2, r5, 0x0
             0x000804de: b4 91:       add (2rus)      r3, r9, 0x0
             0x000804e0: 00 f0 32 d1: bl (lu10)       0x132 <i2s_deinit_ports>
             0x000804e4: 08 5c:       ldw (ru6)       r0, sp[0x8]
             0x000804e6: 00 e8:       setc (ru6)      res[r0], 0x0
             0x000804e8: 94 5e:       ldw (ru6)       r10, sp[0x14]
             0x000804ea: 85 fe ec ef: ldd (l2rus)     r9, r8, sp[0x9]
             0x000804ee: ac fd ec ef: ldd (l2rus)     r7, r6, sp[0x8]
             0x000804f2: 47 fb ec ef: ldd (l2rus)     r5, r4, sp[0x7]
             0x000804f6: d6 77:       retsp (u6)      0x16
.label30     0x000804f8: 00 68:       ldc (ru6)       r0, 0x0
             0x000804fa: 00 f0 b7 d1: bl (lu10)       0x1b7 <__xcore_ecallf>
             0x000804fe: 00 00:       stw (2rus)      r0, r0[0x0]

<i2s_init_ports>:
             0x00080500: 00 f0 40 77: entsp (lu6)     0x0
             0x00080504: 84 77:       extsp (u6)      0x4
             0x00080506: 04 f9 ec f7: std (l2rus)     r5, r4, sp[0x0]
             0x0008050a: 82 55:       stw (ru6)       r6, sp[0x2]
             0x0008050c: df f9 ec ef: ldd (l2rus)     r11, r5, sp[0x3]
             0x00080510: 05 5d:       ldw (ru6)       r4, sp[0x5]
             0x00080512: c7 ea:       setc (ru6)      res[r11], 0x7
             0x00080514: 08 e9:       setc (ru6)      res[r4], 0x8
             0x00080516: fc fe ec 0f: setclk (lr2r)   res[r4], r11
             0x0008051a: 40 f1 0f e9: setc (lru6)     res[r4], 0x500f
             0x0008051e: 48 e9:       setc (ru6)      res[r5], 0x8
             0x00080520: 80 f0 4f e9: setc (lru6)     res[r5], 0x200f
             0x00080524: 20 69:       ldc (ru6)       r4, 0x20
             0x00080526: d1 ff ec 27: settw (lr2r)    res[r5], r4
             0x0008052a: fd fe ec 0f: setclk (lr2r)   res[r5], r11
             0x0008052e: 19 a7:       mkmsk (rus)     r6, 0x1
             0x00080530: c9 af:       out (r2r)       res[r5], r6
             0x00080532: 4d 78:       bf (ru6)        r1, 0xd <.label32>
             0x00080534: 40 69:       ldc (ru6)       r5, 0x0
.label33     0x00080536: 60 08:       ldw (2rus)      r6, r0[0x0]
             0x00080538: 88 e9:       setc (ru6)      res[r6], 0x8
             0x0008053a: 80 f0 8f e9: setc (lru6)     res[r6], 0x200f
             0x0008053e: d2 ff ec 27: settw (lr2r)    res[r6], r4
             0x00080542: fe fe ec 0f: setclk (lr2r)   res[r6], r11
             0x00080546: c6 af:       out (r2r)       res[r6], r5
             0x00080548: 40 92:       add (2rus)      r0, r0, 0x4
             0x0008054a: 15 98:       sub (2rus)      r1, r1, 0x1
             0x0008054c: 4c 74:       bt (ru6)        r1, -0xc <.label33>
.label32     0x0008054e: cb 78:       bf (ru6)        r3, 0xb <.label34>
.label35     0x00080550: 08 08:       ldw (2rus)      r0, r2[0x0]
             0x00080552: 08 e8:       setc (ru6)      res[r0], 0x8
             0x00080554: 80 f0 0f e8: setc (lru6)     res[r0], 0x200f
             0x00080558: 10 ff ec 27: settw (lr2r)    res[r0], r4
             0x0008055c: 5c ff ec 0f: setclk (lr2r)   res[r0], r11
             0x00080560: 68 92:       add (2rus)      r2, r2, 0x4
             0x00080562: 3d 98:       sub (2rus)      r3, r3, 0x1
             0x00080564: cb 74:       bt (ru6)        r3, -0xb <.label35>
.label34     0x00080566: 82 5d:       ldw (ru6)       r6, sp[0x2]
             0x00080568: 04 f9 ec ef: ldd (l2rus)     r5, r4, sp[0x0]
             0x0008056c: 84 67:       ldaw (ru6)      sp, sp[0x4]
             0x0008056e: c0 77:       retsp (u6)      0x0

<i2s_ratio_n>:
             0x00080570: 00 f0 70 77: entsp (lu6)     0x30
             0x00080574: 28 55:       stw (ru6)       r4, sp[0x28]
             0x00080576: 69 55:       stw (ru6)       r5, sp[0x29]
             0x00080578: aa 55:       stw (ru6)       r6, sp[0x2a]
             0x0008057a: eb 55:       stw (ru6)       r7, sp[0x2b]
             0x0008057c: 2c 56:       stw (ru6)       r8, sp[0x2c]
             0x0008057e: 6d 56:       stw (ru6)       r9, sp[0x2d]
             0x00080580: ae 56:       stw (ru6)       r10, sp[0x2e]
             0x00080582: c7 54:       stw (ru6)       r3, sp[0x7]
             0x00080584: b8 90:       add (2rus)      r11, r2, 0x0
             0x00080586: 45 54:       stw (ru6)       r1, sp[0x5]
             0x00080588: 70 90:       add (2rus)      r7, r0, 0x0
             0x0008058a: c2 55:       stw (ru6)       r7, sp[0x2]
             0x0008058c: 32 5c:       ldw (ru6)       r0, sp[0x32]
             0x0008058e: 33 5d:       ldw (ru6)       r4, sp[0x33]
             0x00080590: 01 54:       stw (ru6)       r0, sp[0x1]
             0x00080592: 71 5e:       ldw (ru6)       r9, sp[0x31]
             0x00080594: 09 68:       ldc (ru6)       r0, 0x9
             0x00080596: 94 c9:       lsu (3r)        r1, r9, r0
             0x00080598: e1 4f:       ecallf (1r)     r1
             0x0008059a: 8c c9:       lsu (3r)        r0, r11, r0
             0x0008059c: e0 4f:       ecallf (1r)     r0
             0x0008059e: c7 7a:       bf (ru6)        r11, 0x7 <.label36>
             0x000805a0: 8c 91:       add (2rus)      r0, r11, 0x0
             0x000805a2: 45 5c:       ldw (ru6)       r1, sp[0x5]
.label37     0x000805a4: 24 08:       ldw (2rus)      r2, r1[0x0]
             0x000805a6: 97 e8:       setc (ru6)      res[r2], 0x17
             0x000805a8: 54 92:       add (2rus)      r1, r1, 0x4
             0x000805aa: 01 98:       sub (2rus)      r0, r0, 0x1
             0x000805ac: 05 74:       bt (ru6)        r0, -0x5 <.label37>
.label36     0x000805ae: 47 7a:       bf (ru6)        r9, 0x7 <.label38>
             0x000805b0: 84 91:       add (2rus)      r0, r9, 0x0
             0x000805b2: 47 5c:       ldw (ru6)       r1, sp[0x7]
.label39     0x000805b4: 24 08:       ldw (2rus)      r2, r1[0x0]
             0x000805b6: 97 e8:       setc (ru6)      res[r2], 0x17
             0x000805b8: 54 92:       add (2rus)      r1, r1, 0x4
             0x000805ba: 01 98:       sub (2rus)      r0, r0, 0x1
             0x000805bc: 05 74:       bt (ru6)        r0, -0x5 <.label39>
.label38     0x000805be: 74 5d:       ldw (ru6)       r5, sp[0x34]
             0x000805c0: 17 e9:       setc (ru6)      res[r4], 0x17
             0x000805c2: c7 7a:       bf (ru6)        r11, 0x7 <.label40>
             0x000805c4: ff 08:       ldw (2rus)      r3, r7[0x3]
             0x000805c6: 0c 0b:       ldw (2rus)      r0, r7[0x4]
             0x000805c8: 9d a1:       shl (2rus)      r1, r11, 0x1
             0x000805ca: 88 64:       ldaw (ru6)      r2, sp[0x8]
             0x000805cc: ec 91:       add (2rus)      r6, r11, 0x0
             0x000805ce: e3 27:       bla (1r)        r3
             0x000805d0: 78 91:       add (2rus)      r11, r6, 0x0
.label40     0x000805d2: c4 b0:       eq (2rus)       r0, r5, 0x0
             0x000805d4: c3 7a:       bf (ru6)        r11, 0x3 <.label41>
             0x000805d6: 4c 71:       bt (ru6)        r5, 0xc <.label42>
             0x000805d8: 82 68:       ldc (ru6)       r2, 0x2
             0x000805da: 0b 73:       bu (u6)         0xb <.label43>
.label41     0x000805dc: c6 56:       stw (ru6)       r11, sp[0x6]
             0x000805de: d5 a6:       mkmsk (rus)     r1, 0x1
             0x000805e0: 94 3f:       setpt (r2r)     res[r4], r1
             0x000805e2: 40 68:       ldc (ru6)       r1, 0x0
             0x000805e4: 90 68:       ldc (ru6)       r2, 0x10
             0x000805e6: d2 f8 ed cf: outpw (l3r)     res[r4], r1, r2
             0x000805ea: 41 5c:       ldw (ru6)       r1, sp[0x1]
             0x000805ec: 4f e8:       setc (ru6)      res[r1], 0xf
             0x000805ee: 26 73:       bu (u6)         0x26 <.label44>
.label42     0x000805f0: d9 a6:       mkmsk (rus)     r2, 0x1
.label43     0x000805f2: c8 64:       ldaw (ru6)      r3, sp[0x8]
             0x000805f4: 50 68:       ldc (ru6)       r1, 0x10
             0x000805f6: c6 56:       stw (ru6)       r11, sp[0x6]
             0x000805f8: 45 5d:       ldw (ru6)       r5, sp[0x5]
.label45     0x000805fa: 44 09:       ldw (2rus)      r8, r5[0x0]
             0x000805fc: 38 3f:       setpt (r2r)     res[r8], r2
             0x000805fe: ac 08:       ldw (2rus)      r10, r3[0x0]
             0x00080600: a9 a6:       shl (2rus)      r10, r10, 0x10
             0x00080602: aa 17:       bitrev (2r)     r10, r10
             0x00080604: 21 fa ed cf: outpw (l3r)     res[r8], r10, r1
             0x00080608: 54 93:       add (2rus)      r5, r5, 0x4
             0x0008060a: 3d 9a:       sub (2rus)      r11, r11, 0x1
             0x0008060c: bc 94:       add (2rus)      r3, r3, 0x8
             0x0008060e: cb 76:       bt (ru6)        r11, -0xb <.label45>
             0x00080610: d9 a6:       mkmsk (rus)     r2, 0x1
             0x00080612: 98 3f:       setpt (r2r)     res[r4], r2
             0x00080614: 80 68:       ldc (ru6)       r2, 0x0
             0x00080616: e1 f8 ed cf: outpw (l3r)     res[r4], r2, r1
             0x0008061a: 81 5c:       ldw (ru6)       r2, sp[0x1]
             0x0008061c: 8f e8:       setc (ru6)      res[r2], 0xf
             0x0008061e: 86 5c:       ldw (ru6)       r2, sp[0x6]
             0x00080620: 8d 78:       bf (ru6)        r2, 0xd <.label44>
             0x00080622: 89 64:       ldaw (ru6)      r2, sp[0x9]
             0x00080624: c6 5c:       ldw (ru6)       r3, sp[0x6]
             0x00080626: c5 5e:       ldw (ru6)       r11, sp[0x5]
.label46     0x00080628: dc 09:       ldw (2rus)      r5, r11[0x0]
             0x0008062a: 88 08:       ldw (2rus)      r8, r2[0x0]
             0x0008062c: 81 a6:       shl (2rus)      r8, r8, 0x10
             0x0008062e: a0 17:       bitrev (2r)     r8, r8
             0x00080630: 45 f9 ed cf: outpw (l3r)     res[r5], r8, r1
             0x00080634: 7c 94:       add (2rus)      r11, r11, 0x4
             0x00080636: 3d 98:       sub (2rus)      r3, r3, 0x1
             0x00080638: a8 94:       add (2rus)      r2, r2, 0x8
             0x0008063a: ca 74:       bt (ru6)        r3, -0xa <.label46>
.label44     0x0008063c: 14 a7:       mkmsk (rus)     r5, 0x20
             0x0008063e: 10 6a:       ldc (ru6)       r8, 0x10
             0x00080640: 90 fd ed cf: outpw (l3r)     res[r4], r5, r8
             0x00080644: 49 7a:       bf (ru6)        r9, 0x9 <.label47>
             0x00080646: 80 44:       or (3r)         r0, r0, r8
             0x00080648: 94 91:       add (2rus)      r1, r9, 0x0
             0x0008064a: 87 5c:       ldw (ru6)       r2, sp[0x7]
.label48     0x0008064c: 38 08:       ldw (2rus)      r3, r2[0x0]
             0x0008064e: d3 3e:       setpt (r2r)     res[r3], r0
             0x00080650: 43 c7:       setpsc (r2r)    res[r3], r8
             0x00080652: 68 92:       add (2rus)      r2, r2, 0x4
             0x00080654: 15 98:       sub (2rus)      r1, r1, 0x1
             0x00080656: 46 74:       bt (ru6)        r1, -0x6 <.label48>
.label47     0x00080658: 06 5c:       ldw (ru6)       r0, sp[0x6]
             0x0008065a: 01 a0:       shl (2rus)      r0, r0, 0x1
             0x0008065c: 03 54:       stw (ru6)       r0, sp[0x3]
             0x0008065e: 85 a1:       shl (2rus)      r0, r9, 0x1
             0x00080660: 04 54:       stw (ru6)       r0, sp[0x4]
             0x00080662: 88 65:       ldaw (ru6)      r6, sp[0x8]
.label60     0x00080664: dd 08:       ldw (2rus)      r1, r7[0x1]
             0x00080666: 0c 0b:       ldw (2rus)      r0, r7[0x4]
             0x00080668: e1 27:       bla (1r)        r1
             0x0008066a: a0 90:       add (2rus)      r10, r0, 0x0
             0x0008066c: 9d 72:       bt (ru6)        r10, 0x1d <.label49>
             0x0008066e: c6 5e:       ldw (ru6)       r11, sp[0x6]
             0x00080670: cc 7a:       bf (ru6)        r11, 0xc <.label50>
             0x00080672: ff 08:       ldw (2rus)      r3, r7[0x3]
             0x00080674: 0c 0b:       ldw (2rus)      r0, r7[0x4]
             0x00080676: 43 5c:       ldw (ru6)       r1, sp[0x3]
             0x00080678: e8 90:       add (2rus)      r2, r6, 0x0
             0x0008067a: 30 91:       add (2rus)      r7, r4, 0x0
             0x0008067c: c4 91:       add (2rus)      r4, r9, 0x0
             0x0008067e: 1c 92:       add (2rus)      r9, r11, 0x0
             0x00080680: e3 27:       bla (1r)        r3
             0x00080682: 34 92:       add (2rus)      r11, r9, 0x0
             0x00080684: 50 91:       add (2rus)      r9, r4, 0x0
             0x00080686: 0c 91:       add (2rus)      r4, r7, 0x0
             0x00080688: c2 5d:       ldw (ru6)       r7, sp[0x2]
.label50     0x0008068a: c8 90:       add (2rus)      r0, r6, 0x0
             0x0008068c: 9c 91:       add (2rus)      r1, r11, 0x0
             0x0008068e: 85 5c:       ldw (ru6)       r2, sp[0x5]
             0x00080690: c6 56:       stw (ru6)       r11, sp[0x6]
             0x00080692: ca 7a:       bf (ru6)        r11, 0xa <.label49>
.label51     0x00080694: 38 08:       ldw (2rus)      r3, r2[0x0]
             0x00080696: b0 08:       ldw (2rus)      r11, r0[0x0]
             0x00080698: bd a6:       shl (2rus)      r11, r11, 0x10
             0x0008069a: af 17:       bitrev (2r)     r11, r11
             0x0008069c: 3c fd ed cf: outpw (l3r)     res[r3], r11, r8
             0x000806a0: 68 92:       add (2rus)      r2, r2, 0x4
             0x000806a2: 15 98:       sub (2rus)      r1, r1, 0x1
             0x000806a4: 80 94:       add (2rus)      r0, r0, 0x8
             0x000806a6: 4a 74:       bt (ru6)        r1, -0xa <.label51>
.label49     0x000806a8: 18 64:       ldaw (ru6)      r0, sp[0x18]
             0x000806aa: 94 91:       add (2rus)      r1, r9, 0x0
             0x000806ac: 87 5c:       ldw (ru6)       r2, sp[0x7]
             0x000806ae: 4a 7a:       bf (ru6)        r9, 0xa <.label52>
.label53     0x000806b0: 38 08:       ldw (2rus)      r3, r2[0x0]
             0x000806b2: bd fc ee 97: inpw (l2rus)    r3, res[r3], 0x10
             0x000806b6: cf 16:       bitrev (2r)     r3, r3
             0x000806b8: 3d 47:       zext (rus)      r3, 0x10
             0x000806ba: 30 00:       stw (2rus)      r3, r0[0x0]
             0x000806bc: 68 92:       add (2rus)      r2, r2, 0x4
             0x000806be: 15 98:       sub (2rus)      r1, r1, 0x1
             0x000806c0: 80 94:       add (2rus)      r0, r0, 0x8
             0x000806c2: 4a 74:       bt (ru6)        r1, -0xa <.label53>
.label52     0x000806c4: 81 8f:       not (2r)        r0, r5
             0x000806c6: 40 fd ed cf: outpw (l3r)     res[r4], r0, r8
             0x000806ca: 92 72:       bt (ru6)        r10, 0x12 <.label54>
             0x000806cc: 09 64:       ldaw (ru6)      r0, sp[0x9]
             0x000806ce: c6 5c:       ldw (ru6)       r3, sp[0x6]
             0x000806d0: 1c 90:       add (2rus)      r1, r3, 0x0
             0x000806d2: 85 5c:       ldw (ru6)       r2, sp[0x5]
             0x000806d4: ca 78:       bf (ru6)        r3, 0xa <.label55>
.label56     0x000806d6: 38 08:       ldw (2rus)      r3, r2[0x0]
             0x000806d8: b0 08:       ldw (2rus)      r11, r0[0x0]
             0x000806da: bd a6:       shl (2rus)      r11, r11, 0x10
             0x000806dc: af 17:       bitrev (2r)     r11, r11
             0x000806de: 3c fd ed cf: outpw (l3r)     res[r3], r11, r8
             0x000806e2: 68 92:       add (2rus)      r2, r2, 0x4
             0x000806e4: 15 98:       sub (2rus)      r1, r1, 0x1
             0x000806e6: 80 94:       add (2rus)      r0, r0, 0x8
             0x000806e8: 4a 74:       bt (ru6)        r1, -0xa <.label56>
.label55     0x000806ea: 90 fd ed cf: outpw (l3r)     res[r4], r5, r8
             0x000806ee: c4 90:       add (2rus)      r0, r5, 0x0
.label54     0x000806f0: 59 64:       ldaw (ru6)      r1, sp[0x19]
             0x000806f2: a4 91:       add (2rus)      r2, r9, 0x0
             0x000806f4: c7 5c:       ldw (ru6)       r3, sp[0x7]
             0x000806f6: 54 7a:       bf (ru6)        r9, 0x14 <.label57>
.label58     0x000806f8: bc 08:       ldw (2rus)      r11, r3[0x0]
             0x000806fa: bd fe ee 97: inpw (l2rus)    r11, res[r11], 0x10
             0x000806fe: af 17:       bitrev (2r)     r11, r11
             0x00080700: bd 47:       zext (rus)      r11, 0x10
             0x00080702: b4 00:       stw (2rus)      r11, r1[0x0]
             0x00080704: 7c 92:       add (2rus)      r3, r3, 0x4
             0x00080706: 29 98:       sub (2rus)      r2, r2, 0x1
             0x00080708: 94 94:       add (2rus)      r1, r1, 0x8
             0x0008070a: 8a 74:       bt (ru6)        r2, -0xa <.label58>
             0x0008070c: 04 8f:       not (2r)        r5, r0
             0x0008070e: 90 fd ed cf: outpw (l3r)     res[r4], r5, r8
             0x00080712: 49 7a:       bf (ru6)        r9, 0x9 <.label59>
             0x00080714: fe 08:       ldw (2rus)      r3, r7[0x2]
             0x00080716: 0c 0b:       ldw (2rus)      r0, r7[0x4]
             0x00080718: 44 5c:       ldw (ru6)       r1, sp[0x4]
             0x0008071a: 98 64:       ldaw (ru6)      r2, sp[0x18]
             0x0008071c: e3 27:       bla (1r)        r3
             0x0008071e: 03 73:       bu (u6)         0x3 <.label59>
.label57     0x00080720: 04 8f:       not (2r)        r5, r0
             0x00080722: 90 fd ed cf: outpw (l3r)     res[r4], r5, r8
.label59     0x00080726: 01 f0 a3 7e: bf (lru6)       r10, -0x63 <.label60>
             0x0008072a: 43 72:       bt (ru6)        r9, 0x3 <.label61>
             0x0008072c: 05 5c:       ldw (ru6)       r0, sp[0x5]
             0x0008072e: 00 08:       ldw (2rus)      r0, r0[0x0]
             0x00080730: f0 87:       syncr (1r)      res[r0]
.label61     0x00080732: 01 5c:       ldw (ru6)       r0, sp[0x1]
             0x00080734: 07 e8:       setc (ru6)      res[r0], 0x7
             0x00080736: 88 91:       add (2rus)      r0, r10, 0x0
             0x00080738: ae 5e:       ldw (ru6)       r10, sp[0x2e]
             0x0008073a: 2c 5e:       ldw (ru6)       r8, sp[0x2c]
             0x0008073c: 6d 5e:       ldw (ru6)       r9, sp[0x2d]
             0x0008073e: aa 5d:       ldw (ru6)       r6, sp[0x2a]
             0x00080740: eb 5d:       ldw (ru6)       r7, sp[0x2b]
             0x00080742: 28 5d:       ldw (ru6)       r4, sp[0x28]
             0x00080744: 69 5d:       ldw (ru6)       r5, sp[0x29]
             0x00080746: f0 77:       retsp (u6)      0x30

<i2s_deinit_ports>:
             0x00080748: 00 f0 40 77: entsp (lu6)     0x0
             0x0008074c: 82 77:       extsp (u6)      0x2
             0x0008074e: 00 55:       stw (ru6)       r4, sp[0x0]
             0x00080750: c4 5e:       ldw (ru6)       r11, sp[0x4]
             0x00080752: 03 5d:       ldw (ru6)       r4, sp[0x3]
             0x00080754: 00 e9:       setc (ru6)      res[r4], 0x0
             0x00080756: c0 ea:       setc (ru6)      res[r11], 0x0
             0x00080758: 45 78:       bf (ru6)        r1, 0x5 <.label62>
.label63     0x0008075a: b0 08:       ldw (2rus)      r11, r0[0x0]
             0x0008075c: c0 ea:       setc (ru6)      res[r11], 0x0
             0x0008075e: 40 92:       add (2rus)      r0, r0, 0x4
             0x00080760: 15 98:       sub (2rus)      r1, r1, 0x1
             0x00080762: 45 74:       bt (ru6)        r1, -0x5 <.label63>
.label62     0x00080764: c5 78:       bf (ru6)        r3, 0x5 <.label64>
.label65     0x00080766: 08 08:       ldw (2rus)      r0, r2[0x0]
             0x00080768: 00 e8:       setc (ru6)      res[r0], 0x0
             0x0008076a: 68 92:       add (2rus)      r2, r2, 0x4
             0x0008076c: 3d 98:       sub (2rus)      r3, r3, 0x1
             0x0008076e: c5 74:       bt (ru6)        r3, -0x5 <.label65>
.label64     0x00080770: 00 5d:       ldw (ru6)       r4, sp[0x0]
             0x00080772: 82 67:       ldaw (ru6)      sp, sp[0x2]
             0x00080774: c0 77:       retsp (u6)      0x0
             0x00080776: 00 00:       stw (2rus)      r0, r0[0x0]

<_get_cmdline>:
.label6      0x00080778: 00 f0 40 77: entsp (lu6)     0x0
             0x0008077c: 24 90:       add (2rus)      r2, r1, 0x0
             0x0008077e: 10 90:       add (2rus)      r1, r0, 0x0
             0x00080780: 0d 68:       ldc (ru6)       r0, 0xd
             0x00080782: 00 f0 a5 d8: ldap (lu10)     r11, 0xa5 <_DoSyscall>
             0x00080786: fb 27:       bau (1r)        r11

<__libc_done>:
.label9      0x00080788: 00 f0 42 77: entsp (lu6)     0x2
             0x0008078c: 00 68:       ldc (ru6)       r0, 0x0
             0x0008078e: 10 90:       add (2rus)      r1, r0, 0x0
             0x00080790: 00 f0 a6 d0: bl (lu10)       0xa6 <__call_exitprocs>
             0x00080794: 00 f0 aa d0: bl (lu10)       0xaa <_cleanup>
             0x00080798: 00 f0 5b d7: bl (lu10)       -0x35b <.label66>
             0x0008079c: 00 f0 ac d0: bl (lu10)       0xac <_done>

<_exit_unlocked>:
.label10     0x000807a0: 00 f0 44 77: entsp (lu6)     0x4
             0x000807a4: 02 55:       stw (ru6)       r4, sp[0x2]
             0x000807a6: 40 90:       add (2rus)      r4, r0, 0x0
             0x000807a8: 40 68:       ldc (ru6)       r1, 0x0
             0x000807aa: 00 f0 99 d0: bl (lu10)       0x99 <__call_exitprocs>
             0x000807ae: 00 f0 9d d0: bl (lu10)       0x9d <_cleanup>
             0x000807b2: 00 f0 68 d7: bl (lu10)       -0x368 <.label66>
             0x000807b6: c0 90:       add (2rus)      r0, r4, 0x0
             0x000807b8: 00 f0 a6 d0: bl (lu10)       0xa6 <_exit>

<memset>:
.label2      0x000807bc: 00 f0 c0 6e: ldw (lru6)      r11, cp[0x0]
             0x000807c0: ff 17:       nop (0r)        
             0x000807c2: fb 27:       bau (1r)        r11

<__init_threadlocal_timer>:
.label3      0x000807c4: 00 f0 40 77: entsp (lu6)     0x0
             0x000807c8: c9 86:       getr (rus)      r2, 0x1
             0x000807ca: 02 f0 48 60: ldaw (lru6)     r1, dp[0x88]
             0x000807ce: ee 17:       get (0r)        r11, id
             0x000807d0: a7 fc ec 07: stw (l3r)       r2, r1[r11]
             0x000807d4: c0 77:       retsp (u6)      0x0
             0x000807d6: 00 00:       stw (2rus)      r0, r0[0x0]

<__free_threadlocal_timer>:
.label13     0x000807d8: 00 f0 40 77: entsp (lu6)     0x0
             0x000807dc: 02 f0 88 60: ldaw (lru6)     r2, dp[0x88]
             0x000807e0: ee 17:       get (0r)        r11, id
             0x000807e2: ab 4c:       ldw (3r)        r2, r2[r11]
             0x000807e4: e2 17:       freer (1r)      res[r2]
             0x000807e6: c0 77:       retsp (u6)      0x0

<_Exit>:
             0x000807e8: 00 f0 42 77: entsp (lu6)     0x2
             0x000807ec: 00 f0 8c d0: bl (lu10)       0x8c <_exit>

<puts>:
             0x000807f0: 00 f0 4c 77: entsp (lu6)     0xc
             0x000807f4: 44 fb ec f7: std (l2rus)     r5, r4, sp[0x4]
             0x000807f8: 8a 55:       stw (ru6)       r6, sp[0xa]
             0x000807fa: 40 90:       add (2rus)      r4, r0, 0x0
             0x000807fc: 00 f0 54 d0: bl (lu10)       0x54 <strlen>
             0x00080800: 01 55:       stw (ru6)       r4, sp[0x1]
             0x00080802: 02 54:       stw (ru6)       r0, sp[0x2]
             0x00080804: 00 f0 5a 7f: ldaw (lu6)      r11, cp[0x1a]
             0x00080808: c3 56:       stw (ru6)       r11, sp[0x3]
             0x0008080a: d5 a6:       mkmsk (rus)     r1, 0x1
             0x0008080c: 44 54:       stw (ru6)       r1, sp[0x4]
             0x0008080e: 01 90:       add (2rus)      r0, r0, 0x1
             0x00080810: 07 54:       stw (ru6)       r0, sp[0x7]
             0x00080812: 01 64:       ldaw (ru6)      r0, sp[0x1]
             0x00080814: 05 54:       stw (ru6)       r0, sp[0x5]
             0x00080816: 42 69:       ldc (ru6)       r5, 0x2
             0x00080818: 46 55:       stw (ru6)       r5, sp[0x6]
             0x0008081a: 02 f0 3a 58: ldw (lru6)      r0, dp[0xba]
             0x0008081e: 02 70:       bt (ru6)        r0, 0x2 <.label67>
             0x00080820: 00 f0 d4 d0: bl (lu10)       0xd4 <__sinit>
.label67     0x00080824: 02 f0 19 58: ldw (lru6)      r0, dp[0x99]
             0x00080828: 8d 69:       ldc (ru6)       r6, 0xd
             0x0008082a: 52 8a:       ld8u (3r)       r1, r0[r6]
             0x0008082c: 55 3a:       and (3r)        r1, r1, r5
             0x0008082e: 47 70:       bt (ru6)        r1, 0x7 <.label68>
             0x00080830: 01 f0 54 68: ldc (lru6)      r1, 0x54
             0x00080834: 01 10:       add (3r)        r0, r0, r1
             0x00080836: 00 f0 93 d0: bl (lu10)       0x93 <__lock_recursive_acquire>
             0x0008083a: 02 f0 19 58: ldw (lru6)      r0, dp[0x99]
.label68     0x0008083e: 45 64:       ldaw (ru6)      r1, sp[0x5]
             0x00080840: 00 f0 26 d1: bl (lu10)       0x126 <__sfvwrite>
             0x00080844: 40 90:       add (2rus)      r4, r0, 0x0
             0x00080846: 02 f0 19 58: ldw (lru6)      r0, dp[0x99]
             0x0008084a: 52 8a:       ld8u (3r)       r1, r0[r6]
             0x0008084c: 55 3a:       and (3r)        r1, r1, r5
             0x0008084e: 45 70:       bt (ru6)        r1, 0x5 <.label69>
             0x00080850: 01 f0 54 68: ldc (lru6)      r1, 0x54
             0x00080854: 01 10:       add (3r)        r0, r0, r1
             0x00080856: 00 f0 a1 d0: bl (lu10)       0xa1 <__lock_recursive_release>
.label69     0x0008085a: 02 71:       bt (ru6)        r4, 0x2 <.label70>
             0x0008085c: 0a 68:       ldc (ru6)       r0, 0xa
             0x0008085e: 01 73:       bu (u6)         0x1 <.label71>
.label70     0x00080860: d0 a6:       mkmsk (rus)     r0, 0x20
.label71     0x00080862: 8a 5d:       ldw (ru6)       r6, sp[0xa]
             0x00080864: 44 fb ec ef: ldd (l2rus)     r5, r4, sp[0x4]
             0x00080868: cc 77:       retsp (u6)      0xc
             0x0008086a: 00 00:       stw (2rus)      r0, r0[0x0]

<__xcore_ecallf>:
             0x0008086c: ff 17:       nop (0r)        
             0x0008086e: 80 7f:       dualentsp (u6)  0x0
             0x00080870: e0 4f:       ecallf (1r)     r0
             0x00080872: ff 17:       nop (0r)        
             0x00080874: ff 17:       nop (0r)        
             0x00080876: c0 77:       retsp (u6)      0x0

<__memcpy_4>:
<memcpy>:
             0x00080878: 00 f0 c1 6e: ldw (lru6)      r11, cp[0x1]
             0x0008087c: ff 17:       nop (0r)        
             0x0008087e: fb 27:       bau (1r)        r11

<memmove>:
             0x00080880: 00 f0 40 77: entsp (lu6)     0x0
             0x00080884: 31 c8:       lsu (3r)        r3, r0, r1
             0x00080886: 00 f0 c9 7c: bf (lru6)       r3, -0x9 <__memcpy_4> <memcpy>
             0x0008088a: 32 10:       add (3r)        r3, r0, r2
             0x0008088c: 33 c8:       lsu (3r)        r3, r0, r3
             0x0008088e: 00 f0 cd 7c: bf (lru6)       r3, -0xd <__memcpy_4> <memcpy>
             0x00080892: 87 78:       bf (ru6)        r2, 0x7 <.label72>
             0x00080894: c0 68:       ldc (ru6)       r3, 0x0
.label73     0x00080896: b7 88:       ld8u (3r)       r11, r1[r3]
             0x00080898: b3 f8 ec 8f: st8 (l3r)       r11, r0[r3]
             0x0008089c: 3d 90:       add (2rus)      r3, r3, 0x1
             0x0008089e: be 30:       eq (3r)         r11, r3, r2
             0x000808a0: c6 7e:       bf (ru6)        r11, -0x6 <.label73>
.label72     0x000808a2: c0 77:       retsp (u6)      0x0

<__xcore_synchronised_thread_end>:
             0x000808a4: ee 07:       ssync (0r)      
             0x000808a6: 00 00:       stw (2rus)      r0, r0[0x0]

<strlen>:
             0x000808a8: 00 f0 40 77: entsp (lu6)     0x0
             0x000808ac: 21 98:       sub (2rus)      r2, r0, 0x1
             0x000808ae: d5 a6:       mkmsk (rus)     r1, 0x1
.label74     0x000808b0: 39 90:       add (2rus)      r3, r2, 0x1
             0x000808b2: b9 88:       ld8u (3r)       r11, r2[r1]
             0x000808b4: 2c 90:       add (2rus)      r2, r3, 0x0
             0x000808b6: c4 76:       bt (ru6)        r11, -0x4 <.label74>
             0x000808b8: 0c 18:       sub (3r)        r0, r3, r0
             0x000808ba: c0 77:       retsp (u6)      0x0

<_write>:
             0x000808bc: 00 f0 40 77: entsp (lu6)     0x0
             0x000808c0: 38 90:       add (2rus)      r3, r2, 0x0
             0x000808c2: 24 90:       add (2rus)      r2, r1, 0x0
             0x000808c4: 10 90:       add (2rus)      r1, r0, 0x0
             0x000808c6: 06 68:       ldc (ru6)       r0, 0x6
             0x000808c8: 00 f0 58 da: ldap (lu10)     r11, 0x258 <_DoSyscallErrno>
             0x000808cc: fb 27:       bau (1r)        r11
             0x000808ce: 00 00:       stw (2rus)      r0, r0[0x0]

<_DoSyscall>:
             0x000808d0: 00 f0 40 77: entsp (lu6)     0x0
             0x000808d4: d0 a6:       mkmsk (rus)     r0, 0x20
             0x000808d6: c0 77:       retsp (u6)      0x0

<__call_exitprocs_impl>:
             0x000808d8: 00 f0 40 77: entsp (lu6)     0x0
             0x000808dc: c0 77:       retsp (u6)      0x0
             0x000808de: 00 00:       stw (2rus)      r0, r0[0x0]

<__call_exitprocs>:
             0x000808e0: 00 f0 42 77: entsp (lu6)     0x2
             0x000808e4: 00 f0 08 d4: bl (lu10)       -0x8 <__call_exitprocs_impl>
             0x000808e8: c2 77:       retsp (u6)      0x2
             0x000808ea: 00 00:       stw (2rus)      r0, r0[0x0]

<_cleanup>:
             0x000808ec: 00 f0 42 77: entsp (lu6)     0x2
             0x000808f0: 00 f0 c6 d0: bl (lu10)       0xc6 <_cleanup_impl>
             0x000808f4: c2 77:       retsp (u6)      0x2
             0x000808f6: 00 00:       stw (2rus)      r0, r0[0x0]

<_done>:
             0x000808f8: 00 f0 40 77: entsp (lu6)     0x0
             0x000808fc: 07 68:       ldc (ru6)       r0, 0x7
             0x000808fe: 00 f0 19 d4: bl (lu10)       -0x19 <_DoSyscall>
             0x00080902: ed 07:       clre (0r)       
             0x00080904: ec 07:       waiteu (0r)     
             0x00080906: 00 00:       stw (2rus)      r0, r0[0x0]

<_exit>:
             0x00080908: 00 f0 40 77: entsp (lu6)     0x0
             0x0008090c: 10 90:       add (2rus)      r1, r0, 0x0
             0x0008090e: 00 68:       ldc (ru6)       r0, 0x0
             0x00080910: 00 f0 22 d4: bl (lu10)       -0x22 <_DoSyscall>
             0x00080914: ed 07:       clre (0r)       
             0x00080916: ec 07:       waiteu (0r)     

<__alloc_libc_hwlock>:
.label12     0x00080918: 00 f0 40 77: entsp (lu6)     0x0
             0x0008091c: 81 87:       getr (rus)      r0, 0x5
             0x0008091e: 02 f0 39 50: stw (lru6)      r0, dp[0xb9]
             0x00080922: c0 77:       retsp (u6)      0x0

<__lock_fair_acquire>:
             0x00080924: 00 f0 40 77: entsp (lu6)     0x0
             0x00080928: 02 f0 79 58: ldw (lru6)      r1, dp[0xb9]
             0x0008092c: c5 b6:       in (2r)         r1, res[r1]
             0x0008092e: 10 08:       ldw (2rus)      r1, r0[0x0]
             0x00080930: 25 90:       add (2rus)      r2, r1, 0x1
             0x00080932: 20 00:       stw (2rus)      r2, r0[0x0]
             0x00080934: 02 f0 b9 58: ldw (lru6)      r2, dp[0xb9]
             0x00080938: ca ae:       out (r2r)       res[r2], r2
.label75     0x0008093a: 21 08:       ldw (2rus)      r2, r0[0x1]
             0x0008093c: 29 30:       eq (3r)         r2, r2, r1
             0x0008093e: 83 7c:       bf (ru6)        r2, -0x3 <.label75>
             0x00080940: c0 77:       retsp (u6)      0x0
             0x00080942: 00 00:       stw (2rus)      r0, r0[0x0]

<__lock_fair_release>:
             0x00080944: 00 f0 40 77: entsp (lu6)     0x0
             0x00080948: 11 08:       ldw (2rus)      r1, r0[0x1]
             0x0008094a: 15 90:       add (2rus)      r1, r1, 0x1
             0x0008094c: 11 00:       stw (2rus)      r1, r0[0x1]
             0x0008094e: c0 77:       retsp (u6)      0x0

<__lock_recursive_init>:
             0x00080950: 00 f0 40 77: entsp (lu6)     0x0
             0x00080954: d4 a6:       mkmsk (rus)     r1, 0x20
             0x00080956: 10 00:       stw (2rus)      r1, r0[0x0]
             0x00080958: 40 68:       ldc (ru6)       r1, 0x0
             0x0008095a: 11 00:       stw (2rus)      r1, r0[0x1]
             0x0008095c: c0 77:       retsp (u6)      0x0
             0x0008095e: 00 00:       stw (2rus)      r0, r0[0x0]

<__lock_recursive_acquire>:
             0x00080960: 00 f0 40 77: entsp (lu6)     0x0
             0x00080964: ee 17:       get (0r)        r11, id
             0x00080966: 10 08:       ldw (2rus)      r1, r0[0x0]
             0x00080968: 97 34:       eq (3r)         r1, r1, r11
             0x0008096a: 53 70:       bt (ru6)        r1, 0x13 <.label76>
             0x0008096c: 02 f0 79 58: ldw (lru6)      r1, dp[0xb9]
             0x00080970: c5 b6:       in (2r)         r1, res[r1]
             0x00080972: 20 08:       ldw (2rus)      r2, r0[0x0]
             0x00080974: d4 a6:       mkmsk (rus)     r1, 0x20
             0x00080976: 07 73:       bu (u6)         0x7 <.label77>
.label78     0x00080978: 02 f0 b9 58: ldw (lru6)      r2, dp[0xb9]
             0x0008097c: ca ae:       out (r2r)       res[r2], r2
             0x0008097e: 02 f0 b9 58: ldw (lru6)      r2, dp[0xb9]
             0x00080982: ca b6:       in (2r)         r2, res[r2]
             0x00080984: 20 08:       ldw (2rus)      r2, r0[0x0]
.label77     0x00080986: 29 30:       eq (3r)         r2, r2, r1
             0x00080988: 89 7c:       bf (ru6)        r2, -0x9 <.label78>
             0x0008098a: b0 00:       stw (2rus)      r11, r0[0x0]
             0x0008098c: 02 f0 79 58: ldw (lru6)      r1, dp[0xb9]
             0x00080990: c5 ae:       out (r2r)       res[r1], r1
.label76     0x00080992: 11 08:       ldw (2rus)      r1, r0[0x1]
             0x00080994: 15 90:       add (2rus)      r1, r1, 0x1
             0x00080996: 11 00:       stw (2rus)      r1, r0[0x1]
             0x00080998: c0 77:       retsp (u6)      0x0
             0x0008099a: 00 00:       stw (2rus)      r0, r0[0x0]

<__lock_recursive_release>:
             0x0008099c: 00 f0 40 77: entsp (lu6)     0x0
             0x000809a0: 11 08:       ldw (2rus)      r1, r0[0x1]
             0x000809a2: 15 98:       sub (2rus)      r1, r1, 0x1
             0x000809a4: 11 00:       stw (2rus)      r1, r0[0x1]
             0x000809a6: 48 70:       bt (ru6)        r1, 0x8 <.label79>
             0x000809a8: 02 f0 79 58: ldw (lru6)      r1, dp[0xb9]
             0x000809ac: c5 b6:       in (2r)         r1, res[r1]
             0x000809ae: d4 a6:       mkmsk (rus)     r1, 0x20
             0x000809b0: 10 00:       stw (2rus)      r1, r0[0x0]
             0x000809b2: 02 f0 39 58: ldw (lru6)      r0, dp[0xb9]
             0x000809b6: c0 ae:       out (r2r)       res[r0], r0
.label79     0x000809b8: c0 77:       retsp (u6)      0x0
             0x000809ba: 00 00:       stw (2rus)      r0, r0[0x0]

<__sfp_lock_acquire>:
             0x000809bc: 00 f0 42 77: entsp (lu6)     0x2
             0x000809c0: 02 f0 1b 60: ldaw (lru6)     r0, dp[0x9b]
             0x000809c4: 00 f0 34 d4: bl (lu10)       -0x34 <__lock_recursive_acquire>
             0x000809c8: c2 77:       retsp (u6)      0x2
             0x000809ca: 00 00:       stw (2rus)      r0, r0[0x0]

<__sinit>:
             0x000809cc: 00 f0 44 77: entsp (lu6)     0x4
             0x000809d0: 02 55:       stw (ru6)       r4, sp[0x2]
             0x000809d2: 02 f0 1d 60: ldaw (lru6)     r0, dp[0x9d]
             0x000809d6: 00 f0 3d d4: bl (lu10)       -0x3d <__lock_recursive_acquire>
             0x000809da: 02 f0 3a 58: ldw (lru6)      r0, dp[0xba]
             0x000809de: 1e 70:       bt (ru6)        r0, 0x1e <.label80>
             0x000809e0: 80 68:       ldc (ru6)       r2, 0x0
             0x000809e2: 02 f0 a2 50: stw (lru6)      r2, dp[0xa2]
             0x000809e6: d2 a6:       mkmsk (rus)     r0, 0x2
             0x000809e8: 02 f0 23 50: stw (lru6)      r0, dp[0xa3]
             0x000809ec: 02 f0 3b 60: ldaw (lru6)     r0, dp[0xbb]
             0x000809f0: 02 f0 24 50: stw (lru6)      r0, dp[0xa4]
             0x000809f4: 02 f0 18 58: ldw (lru6)      r0, dp[0x98]
             0x000809f8: 44 68:       ldc (ru6)       r1, 0x4
             0x000809fa: 00 f0 1d d0: bl (lu10)       0x1d <std>
             0x000809fe: 02 f0 19 58: ldw (lru6)      r0, dp[0x99]
             0x00080a02: 49 68:       ldc (ru6)       r1, 0x9
             0x00080a04: 11 a7:       mkmsk (rus)     r4, 0x1
             0x00080a06: e0 90:       add (2rus)      r2, r4, 0x0
             0x00080a08: 00 f0 16 d0: bl (lu10)       0x16 <std>
             0x00080a0c: 02 f0 1a 58: ldw (lru6)      r0, dp[0x9a]
             0x00080a10: 52 68:       ldc (ru6)       r1, 0x12
             0x00080a12: 82 68:       ldc (ru6)       r2, 0x2
             0x00080a14: 00 f0 10 d0: bl (lu10)       0x10 <std>
             0x00080a18: 02 f0 3a 51: stw (lru6)      r4, dp[0xba]
.label80     0x00080a1c: 02 f0 1d 60: ldaw (lru6)     r0, dp[0x9d]
             0x00080a20: 00 f0 44 d4: bl (lu10)       -0x44 <__lock_recursive_release>
             0x00080a24: 02 5d:       ldw (ru6)       r4, sp[0x2]
             0x00080a26: c4 77:       retsp (u6)      0x4

<__sfp_lock_release>:
             0x00080a28: 00 f0 42 77: entsp (lu6)     0x2
             0x00080a2c: 02 f0 1b 60: ldaw (lru6)     r0, dp[0x9b]
             0x00080a30: 00 f0 4c d4: bl (lu10)       -0x4c <__lock_recursive_release>
             0x00080a34: c2 77:       retsp (u6)      0x2
             0x00080a36: 00 00:       stw (2rus)      r0, r0[0x0]

<std>:
             0x00080a38: 00 f0 42 77: entsp (lu6)     0x2
             0x00080a3c: c0 68:       ldc (ru6)       r3, 0x0
             0x00080a3e: 30 00:       stw (2rus)      r3, r0[0x0]
             0x00080a40: 31 00:       stw (2rus)      r3, r0[0x1]
             0x00080a42: 32 00:       stw (2rus)      r3, r0[0x2]
             0x00080a44: b3 f8 ec 9f: ldaw (l2rus)    r11, r0[0x3]
             0x00080a48: 9f f9 ec 87: st16 (l3r)      r1, r11[r3]
             0x00080a4c: 4e 68:       ldc (ru6)       r1, 0xe
             0x00080a4e: 11 10:       add (3r)        r1, r0, r1
             0x00080a50: 27 f8 ec 87: st16 (l3r)      r2, r1[r3]
             0x00080a54: 70 02:       stw (2rus)      r3, r0[0x4]
             0x00080a56: 71 02:       stw (2rus)      r3, r0[0x5]
             0x00080a58: 72 02:       stw (2rus)      r3, r0[0x6]
             0x00080a5a: 43 02:       stw (2rus)      r0, r0[0x7]
             0x00080a5c: 00 f0 3a db: ldap (lu10)     r11, 0x33a <__sread>
             0x00080a60: 30 05:       stw (2rus)      r11, r0[0x8]
             0x00080a62: 00 f0 59 db: ldap (lu10)     r11, 0x359 <__swrite>
             0x00080a66: 31 05:       stw (2rus)      r11, r0[0x9]
             0x00080a68: 00 f0 84 db: ldap (lu10)     r11, 0x384 <__sseek>
             0x00080a6c: 32 05:       stw (2rus)      r11, r0[0xa]
             0x00080a6e: 00 f0 a7 db: ldap (lu10)     r11, 0x3a7 <__sclose>
             0x00080a72: 33 05:       stw (2rus)      r11, r0[0xb]
             0x00080a74: 01 f0 54 68: ldc (lru6)      r1, 0x54
             0x00080a78: 01 10:       add (3r)        r0, r0, r1
             0x00080a7a: 00 f0 97 d4: bl (lu10)       -0x97 <__lock_recursive_init>
             0x00080a7e: c2 77:       retsp (u6)      0x2

<_cleanup_impl>:
             0x00080a80: 00 f0 42 77: entsp (lu6)     0x2
             0x00080a84: 00 f0 48 da: ldap (lu10)     r11, 0x248 <_fflush>
             0x00080a88: 8c 91:       add (2rus)      r0, r11, 0x0
             0x00080a8a: 00 f0 f5 d1: bl (lu10)       0x1f5 <_fwalk>
             0x00080a8e: c2 77:       retsp (u6)      0x2

<__sfvwrite>:
             0x00080a90: 00 f0 4e 77: entsp (lu6)     0xe
             0x00080a94: 07 f9 ec f7: std (l2rus)     r5, r4, sp[0x3]
             0x00080a98: 6c fb ec f7: std (l2rus)     r7, r6, sp[0x4]
             0x00080a9c: 45 fc ec f7: std (l2rus)     r9, r8, sp[0x5]
             0x00080aa0: 8c 56:       stw (ru6)       r10, sp[0xc]
             0x00080aa2: 64 90:       add (2rus)      r6, r1, 0x0
             0x00080aa4: 83 55:       stw (ru6)       r6, sp[0x3]
             0x00080aa6: 50 90:       add (2rus)      r5, r0, 0x0
             0x00080aa8: ca 08:       ldw (2rus)      r0, r6[0x2]
             0x00080aaa: 02 f0 2b 78: bf (lru6)       r0, 0xab <.label81>
             0x00080aae: 07 f9 ec 9f: ldaw (l2rus)    r4, r5[0x3]
             0x00080ab2: 80 6a:       ldc (ru6)       r10, 0x0
             0x00080ab4: 52 85:       ld16s (3r)      r1, r4[r10]
             0x00080ab6: 08 68:       ldc (ru6)       r0, 0x8
             0x00080ab8: 04 38:       and (3r)        r0, r1, r0
             0x00080aba: 04 78:       bf (ru6)        r0, 0x4 <.label82>
             0x00080abc: 04 0b:       ldw (2rus)      r0, r5[0x4]
             0x00080abe: 02 78:       bf (ru6)        r0, 0x2 <.label82>
             0x00080ac0: 35 47:       zext (rus)      r1, 0x10
             0x00080ac2: 11 73:       bu (u6)         0x11 <.label83>
.label82     0x00080ac4: c4 90:       add (2rus)      r0, r5, 0x0
             0x00080ac6: 00 f0 85 d3: bl (lu10)       0x385 <__swsetup>
             0x00080aca: 80 68:       ldc (ru6)       r2, 0x0
             0x00080acc: d2 80:       ld16s (3r)      r1, r4[r2]
             0x00080ace: 0b 78:       bf (ru6)        r0, 0xb <.label83>
             0x00080ad0: 01 f0 00 68: ldc (lru6)      r0, 0x40
             0x00080ad4: 04 40:       or (3r)         r0, r1, r0
             0x00080ad6: c2 f8 ec 87: st16 (l3r)      r0, r4[r2]
             0x00080ada: 00 f0 c5 d1: bl (lu10)       0x1c5 <__errno>
             0x00080ade: 49 68:       ldc (ru6)       r1, 0x9
             0x00080ae0: 10 00:       stw (2rus)      r1, r0[0x0]
             0x00080ae2: 05 f0 00 73: bu (lu6)        0x140 <.label84>
.label83     0x00080ae6: c8 08:       ldw (2rus)      r0, r6[0x0]
             0x00080ae8: 02 54:       stw (ru6)       r0, sp[0x2]
             0x00080aea: 35 37:       sext (rus)      r1, 0x10
             0x00080aec: 02 68:       ldc (ru6)       r0, 0x2
             0x00080aee: 04 38:       and (3r)        r0, r1, r0
             0x00080af0: 07 78:       bf (ru6)        r0, 0x7 <.label85>
             0x00080af2: 05 55:       stw (ru6)       r4, sp[0x5]
             0x00080af4: 01 f0 00 69: ldc (lru6)      r4, 0x40
             0x00080af8: 51 a7:       mkmsk (rus)     r8, 0x1
             0x00080afa: f8 91:       add (2rus)      r7, r10, 0x0
             0x00080afc: 18 92:       add (2rus)      r9, r10, 0x0
             0x00080afe: 0d 73:       bu (u6)         0xd <.label86>
.label85     0x00080b00: d5 46:       zext (rus)      r1, 0x1
             0x00080b02: 61 78:       bf (ru6)        r1, 0x21 <.label87>
             0x00080b04: 05 55:       stw (ru6)       r4, sp[0x5]
             0x00080b06: 00 68:       ldc (ru6)       r0, 0x0
             0x00080b08: 80 90:       add (2rus)      r8, r0, 0x0
             0x00080b0a: 90 90:       add (2rus)      r9, r0, 0x0
             0x00080b0c: 40 90:       add (2rus)      r4, r0, 0x0
             0x00080b0e: 26 73:       bu (u6)         0x26 <.label88>
.label89     0x00080b10: 02 5c:       ldw (ru6)       r0, sp[0x2]
             0x00080b12: 70 08:       ldw (2rus)      r7, r0[0x0]
             0x00080b14: 91 08:       ldw (2rus)      r9, r0[0x1]
             0x00080b16: 80 94:       add (2rus)      r0, r0, 0x8
             0x00080b18: 02 54:       stw (ru6)       r0, sp[0x2]
.label86     0x00080b1a: 46 7e:       bf (ru6)        r9, -0x6 <.label89>
             0x00080b1c: f5 0d:       ldw (2rus)      r11, r5[0x9]
             0x00080b1e: 17 0b:       ldw (2rus)      r1, r5[0x7]
             0x00080b20: c6 ab:       shr (2rus)      r0, r9, 0x6
             0x00080b22: f0 90:       add (2rus)      r3, r4, 0x0
             0x00080b24: 01 70:       bt (ru6)        r0, 0x1 <.label90>
             0x00080b26: b4 91:       add (2rus)      r3, r9, 0x0
.label90     0x00080b28: 88 91:       add (2rus)      r0, r10, 0x0
             0x00080b2a: ec 90:       add (2rus)      r2, r7, 0x0
             0x00080b2c: eb 27:       bla (1r)        r11
             0x00080b2e: 90 c4:       lss (3r)        r1, r0, r8
             0x00080b30: 04 f0 51 70: bt (lru6)       r1, 0x111 <.label91>
             0x00080b34: 3c 11:       add (3r)        r7, r7, r0
             0x00080b36: 14 1a:       sub (3r)        r9, r9, r0
             0x00080b38: da 08:       ldw (2rus)      r1, r6[0x2]
             0x00080b3a: 24 18:       sub (3r)        r2, r1, r0
             0x00080b3c: ea 00:       stw (2rus)      r2, r6[0x2]
             0x00080b3e: 04 30:       eq (3r)         r0, r1, r0
             0x00080b40: 14 7c:       bf (ru6)        r0, -0x14 <.label86>
             0x00080b42: 04 f0 11 73: bu (lu6)        0x111 <.label92>
.label87     0x00080b46: 80 6a:       ldc (ru6)       r10, 0x0
             0x00080b48: f8 91:       add (2rus)      r7, r10, 0x0
             0x00080b4a: 08 92:       add (2rus)      r8, r10, 0x0
             0x00080b4c: 01 f0 22 73: bu (lu6)        0x62 <.label93>
.label94     0x00080b50: 02 5c:       ldw (ru6)       r0, sp[0x2]
             0x00080b52: 80 08:       ldw (2rus)      r8, r0[0x0]
             0x00080b54: 91 08:       ldw (2rus)      r9, r0[0x1]
             0x00080b56: 80 94:       add (2rus)      r0, r0, 0x8
             0x00080b58: 02 54:       stw (ru6)       r0, sp[0x2]
             0x00080b5a: 00 68:       ldc (ru6)       r0, 0x0
.label88     0x00080b5c: 04 54:       stw (ru6)       r0, sp[0x4]
.label103    0x00080b5e: 48 7e:       bf (ru6)        r9, -0x8 <.label94>
             0x00080b60: 04 5c:       ldw (ru6)       r0, sp[0x4]
             0x00080b62: 0c 70:       bt (ru6)        r0, 0xc <.label95>
             0x00080b64: 80 91:       add (2rus)      r0, r8, 0x0
             0x00080b66: 4a 68:       ldc (ru6)       r1, 0xa
             0x00080b68: a4 91:       add (2rus)      r2, r9, 0x0
             0x00080b6a: 01 f0 27 d0: bl (lu10)       0x427 <memchr>
             0x00080b6e: 03 78:       bf (ru6)        r0, 0x3 <.label96>
             0x00080b70: 01 90:       add (2rus)      r0, r0, 0x1
             0x00080b72: c0 1c:       sub (3r)        r4, r0, r8
             0x00080b74: 01 73:       bu (u6)         0x1 <.label97>
.label96     0x00080b76: c5 91:       add (2rus)      r4, r9, 0x1
.label97     0x00080b78: d1 a6:       mkmsk (rus)     r0, 0x1
             0x00080b7a: 04 54:       stw (ru6)       r0, sp[0x4]
.label95     0x00080b7c: c4 cb:       lsu (3r)        r0, r9, r4
             0x00080b7e: f4 91:       add (2rus)      r7, r9, 0x0
             0x00080b80: 01 70:       bt (ru6)        r0, 0x1 <.label98>
             0x00080b82: 30 91:       add (2rus)      r7, r4, 0x0
.label98     0x00080b84: 35 0b:       ldw (2rus)      r3, r5[0x5]
             0x00080b86: c4 08:       ldw (2rus)      r0, r5[0x0]
             0x00080b88: 14 0b:       ldw (2rus)      r1, r5[0x4]
             0x00080b8a: 14 c8:       lsu (3r)        r1, r1, r0
             0x00080b8c: 51 78:       bf (ru6)        r1, 0x11 <.label99>
             0x00080b8e: d6 08:       ldw (2rus)      r1, r5[0x2]
             0x00080b90: ad 10:       add (3r)        r10, r3, r1
             0x00080b92: db c3:       lss (3r)        r1, r10, r7
             0x00080b94: 4d 78:       bf (ru6)        r1, 0xd <.label99>
             0x00080b96: 90 91:       add (2rus)      r1, r8, 0x0
             0x00080b98: a8 91:       add (2rus)      r2, r10, 0x0
             0x00080b9a: 00 f0 8f d5: bl (lu10)       -0x18f <memmove>
             0x00080b9e: c4 08:       ldw (2rus)      r0, r5[0x0]
             0x00080ba0: 82 14:       add (3r)        r0, r0, r10
             0x00080ba2: c4 00:       stw (2rus)      r0, r5[0x0]
             0x00080ba4: c4 90:       add (2rus)      r0, r5, 0x0
             0x00080ba6: 00 f0 b7 d1: bl (lu10)       0x1b7 <_fflush>
             0x00080baa: 1a 78:       bf (ru6)        r0, 0x1a <.label100>
             0x00080bac: 03 f0 13 73: bu (lu6)        0xd3 <.label91>
.label99     0x00080bb0: df c0:       lss (3r)        r1, r7, r3
             0x00080bb2: 4c 78:       bf (ru6)        r1, 0xc <.label101>
             0x00080bb4: 90 91:       add (2rus)      r1, r8, 0x0
             0x00080bb6: ec 90:       add (2rus)      r2, r7, 0x0
             0x00080bb8: 00 f0 9e d5: bl (lu10)       -0x19e <memmove>
             0x00080bbc: c6 08:       ldw (2rus)      r0, r5[0x2]
             0x00080bbe: 43 1a:       sub (3r)        r0, r0, r7
             0x00080bc0: c6 00:       stw (2rus)      r0, r5[0x2]
             0x00080bc2: c4 08:       ldw (2rus)      r0, r5[0x0]
             0x00080bc4: 43 12:       add (3r)        r0, r0, r7
             0x00080bc6: c4 00:       stw (2rus)      r0, r5[0x0]
             0x00080bc8: 6c 91:       add (2rus)      r10, r7, 0x0
             0x00080bca: 0a 73:       bu (u6)         0xa <.label100>
.label101    0x00080bcc: f5 0d:       ldw (2rus)      r11, r5[0x9]
             0x00080bce: 17 0b:       ldw (2rus)      r1, r5[0x7]
             0x00080bd0: 00 68:       ldc (ru6)       r0, 0x0
             0x00080bd2: a0 91:       add (2rus)      r2, r8, 0x0
             0x00080bd4: eb 27:       bla (1r)        r11
             0x00080bd6: a0 90:       add (2rus)      r10, r0, 0x0
             0x00080bd8: d1 a6:       mkmsk (rus)     r0, 0x1
             0x00080bda: 88 c1:       lss (3r)        r0, r10, r0
             0x00080bdc: 02 f0 3b 70: bt (lru6)       r0, 0xbb <.label91>
.label100    0x00080be0: 42 35:       eq (3r)         r0, r4, r10
             0x00080be2: 07 78:       bf (ru6)        r0, 0x7 <.label102>
             0x00080be4: c4 90:       add (2rus)      r0, r5, 0x0
             0x00080be6: 00 f0 97 d1: bl (lu10)       0x197 <_fflush>
             0x00080bea: 40 68:       ldc (ru6)       r1, 0x0
             0x00080bec: 44 54:       stw (ru6)       r1, sp[0x4]
             0x00080bee: 02 f0 32 70: bt (lru6)       r0, 0xb2 <.label91>
.label102    0x00080bf2: 82 1d:       sub (3r)        r4, r4, r10
             0x00080bf4: 82 16:       add (3r)        r8, r8, r10
             0x00080bf6: 96 1e:       sub (3r)        r9, r9, r10
             0x00080bf8: ca 08:       ldw (2rus)      r0, r6[0x2]
             0x00080bfa: 92 1c:       sub (3r)        r1, r0, r10
             0x00080bfc: da 00:       stw (2rus)      r1, r6[0x2]
             0x00080bfe: 82 34:       eq (3r)         r0, r0, r10
             0x00080c00: 01 f0 13 7c: bf (lru6)       r0, -0x53 <.label103>
.label81     0x00080c04: 80 6a:       ldc (ru6)       r10, 0x0
             0x00080c06: 02 f0 2f 73: bu (lu6)        0xaf <.label92>
.label104    0x00080c0a: 02 5c:       ldw (ru6)       r0, sp[0x2]
             0x00080c0c: 70 08:       ldw (2rus)      r7, r0[0x0]
             0x00080c0e: 81 08:       ldw (2rus)      r8, r0[0x1]
             0x00080c10: 80 94:       add (2rus)      r0, r0, 0x8
             0x00080c12: 02 54:       stw (ru6)       r0, sp[0x2]
.label93     0x00080c14: 06 7e:       bf (ru6)        r8, -0x6 <.label104>
             0x00080c16: 56 09:       ldw (2rus)      r9, r5[0x2]
             0x00080c18: 62 85:       ld16s (3r)      r2, r4[r10]
             0x00080c1a: 08 f0 00 68: ldc (lru6)      r0, 0x200
             0x00080c1e: 08 38:       and (3r)        r0, r2, r0
             0x00080c20: 36 78:       bf (ru6)        r0, 0x36 <.label105>
             0x00080c22: 11 ce:       lsu (3r)        r1, r8, r9
             0x00080c24: c4 08:       ldw (2rus)      r0, r5[0x0]
             0x00080c26: 01 f0 46 70: bt (lru6)       r1, 0x46 <.label106>
             0x00080c2a: 12 f0 40 68: ldc (lru6)      r1, 0x480
             0x00080c2e: 19 38:       and (3r)        r1, r2, r1
             0x00080c30: 01 f0 41 78: bf (lru6)       r1, 0x41 <.label106>
             0x00080c34: 14 0b:       ldw (2rus)      r1, r5[0x4]
             0x00080c36: 91 18:       sub (3r)        r9, r0, r1
             0x00080c38: 05 0b:       ldw (2rus)      r0, r5[0x5]
             0x00080c3a: 00 f8 ec 2f: lda16 (l3r)     r0, r0[r0]
             0x00080c3e: 9d a7:       mkmsk (rus)     r3, 0x5
             0x00080c40: 33 28:       shr (3r)        r3, r0, r3
             0x00080c42: 03 10:       add (3r)        r0, r0, r3
             0x00080c44: 01 f8 ec 97: ashr (l2rus)    r0, r0, 0x1
             0x00080c48: 31 16:       add (3r)        r3, r8, r9
             0x00080c4a: bd 90:       add (2rus)      r11, r3, 0x1
             0x00080c4c: b3 cc:       lsu (3r)        r3, r0, r11
             0x00080c4e: c1 70:       bt (ru6)        r3, 0x1 <.label107>
             0x00080c50: b0 90:       add (2rus)      r11, r0, 0x0
.label107    0x00080c52: 10 f0 00 68: ldc (lru6)      r0, 0x400
             0x00080c56: 08 38:       and (3r)        r0, r2, r0
             0x00080c58: 3e 78:       bf (ru6)        r0, 0x3e <.label108>
             0x00080c5a: 24 92:       add (2rus)      r10, r9, 0x0
             0x00080c5c: 8c 91:       add (2rus)      r0, r11, 0x0
             0x00080c5e: c5 56:       stw (ru6)       r11, sp[0x5]
             0x00080c60: 00 f0 f2 d0: bl (lu10)       0xf2 <malloc>
             0x00080c64: 90 90:       add (2rus)      r9, r0, 0x0
             0x00080c66: 01 f0 6c 7a: bf (lru6)       r9, 0x6c <.label109>
             0x00080c6a: 14 0b:       ldw (2rus)      r1, r5[0x4]
             0x00080c6c: 84 91:       add (2rus)      r0, r9, 0x0
             0x00080c6e: a8 91:       add (2rus)      r2, r10, 0x0
             0x00080c70: 00 f0 fe d5: bl (lu10)       -0x1fe <__memcpy_4> <memcpy>
             0x00080c74: 00 68:       ldc (ru6)       r0, 0x0
             0x00080c76: 10 90:       add (2rus)      r1, r0, 0x0
             0x00080c78: c1 80:       ld16s (3r)      r0, r4[r1]
             0x00080c7a: ed f3 bf 68: ldc (lru6)      r2, 0xfb7f
             0x00080c7e: 02 38:       and (3r)        r0, r0, r2
             0x00080c80: 02 f0 80 68: ldc (lru6)      r2, 0x80
             0x00080c84: 02 40:       or (3r)         r0, r0, r2
             0x00080c86: c1 f8 ec 87: st16 (l3r)      r0, r4[r1]
             0x00080c8a: 85 5d:       ldw (ru6)       r6, sp[0x5]
             0x00080c8c: 2c 73:       bu (u6)         0x2c <.label110>
.label105    0x00080c8e: c4 08:       ldw (2rus)      r0, r5[0x0]
             0x00080c90: 14 0b:       ldw (2rus)      r1, r5[0x4]
             0x00080c92: 14 c8:       lsu (3r)        r1, r1, r0
             0x00080c94: 52 78:       bf (ru6)        r1, 0x12 <.label111>
             0x00080c96: 14 ce:       lsu (3r)        r1, r9, r8
             0x00080c98: 50 78:       bf (ru6)        r1, 0x10 <.label111>
             0x00080c9a: 05 55:       stw (ru6)       r4, sp[0x5]
             0x00080c9c: dc 90:       add (2rus)      r1, r7, 0x0
             0x00080c9e: a4 91:       add (2rus)      r2, r9, 0x0
             0x00080ca0: 00 f0 12 d6: bl (lu10)       -0x212 <memmove>
             0x00080ca4: c4 08:       ldw (2rus)      r0, r5[0x0]
             0x00080ca6: 81 14:       add (3r)        r0, r0, r9
             0x00080ca8: c4 00:       stw (2rus)      r0, r5[0x0]
             0x00080caa: c4 90:       add (2rus)      r0, r5, 0x0
             0x00080cac: 00 f0 34 d1: bl (lu10)       0x134 <_fflush>
             0x00080cb0: 32 78:       bf (ru6)        r0, 0x32 <.label112>
             0x00080cb2: 01 f0 10 73: bu (lu6)        0x50 <.label91>
.label106    0x00080cb6: 05 55:       stw (ru6)       r4, sp[0x5]
             0x00080cb8: 1f 73:       bu (u6)         0x1f <.label113>
.label111    0x00080cba: 35 0b:       ldw (2rus)      r3, r5[0x5]
             0x00080cbc: 93 c9:       lsu (3r)        r1, r8, r3
             0x00080cbe: 76 78:       bf (ru6)        r1, 0x36 <.label114>
             0x00080cc0: 05 55:       stw (ru6)       r4, sp[0x5]
             0x00080cc2: dc 90:       add (2rus)      r1, r7, 0x0
             0x00080cc4: a0 91:       add (2rus)      r2, r8, 0x0
             0x00080cc6: 00 f0 25 d6: bl (lu10)       -0x225 <memmove>
             0x00080cca: c6 08:       ldw (2rus)      r0, r5[0x2]
             0x00080ccc: 80 1c:       sub (3r)        r0, r0, r8
             0x00080cce: c6 00:       stw (2rus)      r0, r5[0x2]
             0x00080cd0: c4 08:       ldw (2rus)      r0, r5[0x0]
             0x00080cd2: 80 14:       add (3r)        r0, r0, r8
             0x00080cd4: 1e 73:       bu (u6)         0x1e <.label115>
.label108    0x00080cd6: 04 90:       add (2rus)      r0, r1, 0x0
             0x00080cd8: 9c 91:       add (2rus)      r1, r11, 0x0
             0x00080cda: ec 91:       add (2rus)      r6, r11, 0x0
             0x00080cdc: 00 f0 e0 d2: bl (lu10)       0x2e0 <realloc>
             0x00080ce0: 24 92:       add (2rus)      r10, r9, 0x0
             0x00080ce2: 90 90:       add (2rus)      r9, r0, 0x0
             0x00080ce4: 70 7a:       bf (ru6)        r9, 0x30 <.label116>
.label110    0x00080ce6: 05 55:       stw (ru6)       r4, sp[0x5]
             0x00080ce8: 94 03:       stw (2rus)      r9, r5[0x4]
             0x00080cea: 06 16:       add (3r)        r0, r9, r10
             0x00080cec: c4 00:       stw (2rus)      r0, r5[0x0]
             0x00080cee: 65 03:       stw (2rus)      r6, r5[0x5]
             0x00080cf0: 5a 1d:       sub (3r)        r1, r6, r10
             0x00080cf2: d6 00:       stw (2rus)      r1, r5[0x2]
             0x00080cf4: 10 92:       add (2rus)      r9, r8, 0x0
             0x00080cf6: 83 5d:       ldw (ru6)       r6, sp[0x3]
.label113    0x00080cf8: 11 ce:       lsu (3r)        r1, r8, r9
             0x00080cfa: 20 92:       add (2rus)      r10, r8, 0x0
             0x00080cfc: 41 70:       bt (ru6)        r1, 0x1 <.label117>
             0x00080cfe: 24 92:       add (2rus)      r10, r9, 0x0
.label117    0x00080d00: dc 90:       add (2rus)      r1, r7, 0x0
             0x00080d02: a8 91:       add (2rus)      r2, r10, 0x0
             0x00080d04: 00 f0 44 d6: bl (lu10)       -0x244 <memmove>
             0x00080d08: c6 08:       ldw (2rus)      r0, r5[0x2]
             0x00080d0a: 82 1c:       sub (3r)        r0, r0, r10
             0x00080d0c: c6 00:       stw (2rus)      r0, r5[0x2]
             0x00080d0e: c4 08:       ldw (2rus)      r0, r5[0x0]
             0x00080d10: 82 14:       add (3r)        r0, r0, r10
.label115    0x00080d12: c4 00:       stw (2rus)      r0, r5[0x0]
             0x00080d14: 10 92:       add (2rus)      r9, r8, 0x0
.label112    0x00080d16: bd 15:       add (3r)        r7, r7, r9
             0x00080d18: 81 1e:       sub (3r)        r8, r8, r9
             0x00080d1a: ca 08:       ldw (2rus)      r0, r6[0x2]
             0x00080d1c: 91 1c:       sub (3r)        r1, r0, r9
             0x00080d1e: da 00:       stw (2rus)      r1, r6[0x2]
             0x00080d20: 81 34:       eq (3r)         r0, r0, r9
             0x00080d22: 05 5d:       ldw (ru6)       r4, sp[0x5]
             0x00080d24: 80 6a:       ldc (ru6)       r10, 0x0
             0x00080d26: 02 f0 0b 7c: bf (lru6)       r0, -0x8b <.label93>
             0x00080d2a: 1e 73:       bu (u6)         0x1e <.label92>
.label114    0x00080d2c: 05 55:       stw (ru6)       r4, sp[0x5]
             0x00080d2e: f5 0d:       ldw (2rus)      r11, r5[0x9]
             0x00080d30: 17 0b:       ldw (2rus)      r1, r5[0x7]
             0x00080d32: 88 91:       add (2rus)      r0, r10, 0x0
             0x00080d34: ec 90:       add (2rus)      r2, r7, 0x0
             0x00080d36: eb 27:       bla (1r)        r11
             0x00080d38: 90 90:       add (2rus)      r9, r0, 0x0
             0x00080d3a: d1 a6:       mkmsk (rus)     r0, 0x1
             0x00080d3c: 84 c1:       lss (3r)        r0, r9, r0
             0x00080d3e: 15 7c:       bf (ru6)        r0, -0x15 <.label112>
             0x00080d40: 0a 73:       bu (u6)         0xa <.label91>
.label109    0x00080d42: 05 55:       stw (ru6)       r4, sp[0x5]
             0x00080d44: 04 73:       bu (u6)         0x4 <.label118>
.label116    0x00080d46: 05 55:       stw (ru6)       r4, sp[0x5]
             0x00080d48: 04 0b:       ldw (2rus)      r0, r5[0x4]
             0x00080d4a: 00 f0 29 d3: bl (lu10)       0x329 <free>
.label118    0x00080d4e: 00 f0 8b d0: bl (lu10)       0x8b <__errno>
             0x00080d52: 4c 68:       ldc (ru6)       r1, 0xc
             0x00080d54: 10 00:       stw (2rus)      r1, r0[0x0]
.label91     0x00080d56: 00 68:       ldc (ru6)       r0, 0x0
             0x00080d58: c5 5c:       ldw (ru6)       r3, sp[0x5]
             0x00080d5a: 1c 80:       ld16s (3r)      r1, r3[r0]
             0x00080d5c: 01 f0 80 68: ldc (lru6)      r2, 0x40
             0x00080d60: 16 40:       or (3r)         r1, r1, r2
             0x00080d62: 1c f8 ec 87: st16 (l3r)      r1, r3[r0]
.label84     0x00080d66: 58 a7:       mkmsk (rus)     r10, 0x20
.label92     0x00080d68: 88 91:       add (2rus)      r0, r10, 0x0
             0x00080d6a: 8c 5e:       ldw (ru6)       r10, sp[0xc]
             0x00080d6c: 45 fc ec ef: ldd (l2rus)     r9, r8, sp[0x5]
             0x00080d70: 6c fb ec ef: ldd (l2rus)     r7, r6, sp[0x4]
             0x00080d74: 07 f9 ec ef: ldd (l2rus)     r5, r4, sp[0x3]
             0x00080d78: ce 77:       retsp (u6)      0xe
             0x00080d7a: 00 00:       stw (2rus)      r0, r0[0x0]

<_DoSyscallErrno>:
             0x00080d7c: 00 f0 42 77: entsp (lu6)     0x2
             0x00080d80: 00 f0 5a d6: bl (lu10)       -0x25a <_DoSyscall>
             0x00080d84: c4 8e:       not (2r)        r1, r0
             0x00080d86: 57 aa:       shr (2rus)      r1, r1, 0x7
             0x00080d88: 41 78:       bf (ru6)        r1, 0x1 <.label119>
             0x00080d8a: c2 77:       retsp (u6)      0x2
.label119    0x00080d8c: c4 96:       neg (2r)        r1, r0
             0x00080d8e: 41 54:       stw (ru6)       r1, sp[0x1]
             0x00080d90: 00 f0 6a d0: bl (lu10)       0x6a <__errno>
             0x00080d94: 41 5c:       ldw (ru6)       r1, sp[0x1]
             0x00080d96: 10 00:       stw (2rus)      r1, r0[0x0]
             0x00080d98: d0 a6:       mkmsk (rus)     r0, 0x20
             0x00080d9a: c2 77:       retsp (u6)      0x2

<__malloc>:
             0x00080d9c: 00 f0 40 77: entsp (lu6)     0x0
             0x00080da0: 84 77:       extsp (u6)      0x4
             0x00080da2: 04 f9 ec f7: std (l2rus)     r5, r4, sp[0x0]
             0x00080da6: 82 55:       stw (ru6)       r6, sp[0x2]
             0x00080da8: 44 68:       ldc (ru6)       r1, 0x4
             0x00080daa: 11 c8:       lsu (3r)        r1, r0, r1
             0x00080dac: 42 78:       bf (ru6)        r1, 0x2 <.label120>
             0x00080dae: 48 68:       ldc (ru6)       r1, 0x8
             0x00080db0: 06 73:       bu (u6)         0x6 <.label121>
.label120    0x00080db2: 00 f0 62 6c: ldw (lru6)      r1, cp[0x22]
             0x00080db6: 14 18:       sub (3r)        r1, r1, r0
             0x00080db8: d7 46:       zext (rus)      r1, 0x3
             0x00080dba: 11 10:       add (3r)        r1, r0, r1
             0x00080dbc: 54 92:       add (2rus)      r1, r1, 0x4
.label121    0x00080dbe: 24 c8:       lsu (3r)        r2, r1, r0
             0x00080dc0: 00 68:       ldc (ru6)       r0, 0x0
             0x00080dc2: bc 70:       bt (ru6)        r2, 0x3c <.label122>
             0x00080dc4: 04 f0 40 59: ldw (lru6)      r5, dp[0x100]
             0x00080dc8: 02 f0 e0 5a: ldw (lru6)      r11, dp[0xa0]
             0x00080dcc: 4d 79:       bf (ru6)        r5, 0xd <.label123>
             0x00080dce: 04 f0 80 61: ldaw (lru6)     r6, dp[0x100]
.label125    0x00080dd2: f8 90:       add (2rus)      r3, r6, 0x0
             0x00080dd4: e4 90:       add (2rus)      r2, r5, 0x0
             0x00080dd6: 48 08:       ldw (2rus)      r4, r2[0x0]
             0x00080dd8: 11 c9:       lsu (3r)        r5, r4, r1
             0x00080dda: 52 79:       bf (ru6)        r5, 0x12 <.label124>
             0x00080ddc: a8 92:       add (2rus)      r6, r2, 0x4
             0x00080dde: 59 08:       ldw (2rus)      r5, r2[0x1]
             0x00080de0: 48 75:       bt (ru6)        r5, -0x8 <.label125>
             0x00080de2: 12 11:       add (3r)        r5, r4, r2
             0x00080de4: 1d 34:       eq (3r)         r5, r11, r5
             0x00080de6: 5a 71:       bt (ru6)        r5, 0x1a <.label126>
.label123    0x00080de8: 02 f0 9f 58: ldw (lru6)      r2, dp[0x9f]
             0x00080dec: a8 fc ec a7: ldaw (l2rus)    r2, r2[-0x8]
             0x00080df0: ab 1c:       sub (3r)        r2, r2, r11
             0x00080df2: 29 c8:       lsu (3r)        r2, r2, r1
             0x00080df4: a3 70:       bt (ru6)        r2, 0x23 <.label122>
             0x00080df6: 8d 11:       add (3r)        r0, r11, r1
             0x00080df8: 02 f0 20 50: stw (lru6)      r0, dp[0xa0]
             0x00080dfc: ac 91:       add (2rus)      r2, r11, 0x0
             0x00080dfe: 1c 73:       bu (u6)         0x1c <.label127>
.label124    0x00080e00: 84 94:       add (2rus)      r0, r1, 0x8
             0x00080e02: c0 c8:       lsu (3r)        r0, r4, r0
             0x00080e04: 04 78:       bf (ru6)        r0, 0x4 <.label128>
             0x00080e06: 48 92:       add (2rus)      r0, r2, 0x4
             0x00080e08: 19 08:       ldw (2rus)      r1, r2[0x1]
             0x00080e0a: 1c 00:       stw (2rus)      r1, r3[0x0]
             0x00080e0c: 17 73:       bu (u6)         0x17 <.label122>
.label128    0x00080e0e: c1 18:       sub (3r)        r0, r4, r1
             0x00080e10: b9 08:       ldw (2rus)      r11, r2[0x1]
             0x00080e12: 49 10:       add (3r)        r4, r2, r1
             0x00080e14: 4c 00:       stw (2rus)      r4, r3[0x0]
             0x00080e16: c0 00:       stw (2rus)      r0, r4[0x0]
             0x00080e18: 71 01:       stw (2rus)      r11, r4[0x1]
             0x00080e1a: 0e 73:       bu (u6)         0xe <.label127>
.label126    0x00080e1c: 84 1a:       sub (3r)        r4, r1, r4
             0x00080e1e: 02 f0 5f 59: ldw (lru6)      r5, dp[0x9f]
             0x00080e22: 00 f0 a1 6d: ldw (lru6)      r6, cp[0x21]
             0x00080e26: fb 1d:       sub (3r)        r11, r6, r11
             0x00080e28: 7d 14:       add (3r)        r11, r11, r5
             0x00080e2a: 7c cc:       lsu (3r)        r11, r11, r4
             0x00080e2c: c7 72:       bt (ru6)        r11, 0x7 <.label122>
             0x00080e2e: 00 68:       ldc (ru6)       r0, 0x0
             0x00080e30: 0c 00:       stw (2rus)      r0, r3[0x0]
             0x00080e32: 09 10:       add (3r)        r0, r2, r1
             0x00080e34: 02 f0 20 50: stw (lru6)      r0, dp[0xa0]
.label127    0x00080e38: 18 00:       stw (2rus)      r1, r2[0x0]
             0x00080e3a: 48 92:       add (2rus)      r0, r2, 0x4
.label122    0x00080e3c: 82 5d:       ldw (ru6)       r6, sp[0x2]
             0x00080e3e: 04 f9 ec ef: ldd (l2rus)     r5, r4, sp[0x0]
             0x00080e42: 84 67:       ldaw (ru6)      sp, sp[0x4]
             0x00080e44: c0 77:       retsp (u6)      0x0
             0x00080e46: 00 00:       stw (2rus)      r0, r0[0x0]

<malloc>:
             0x00080e48: 00 f0 44 77: entsp (lu6)     0x4
             0x00080e4c: 02 55:       stw (ru6)       r4, sp[0x2]
             0x00080e4e: 40 90:       add (2rus)      r4, r0, 0x0
             0x00080e50: 00 f0 c4 d2: bl (lu10)       0x2c4 <__malloc_lock>
             0x00080e54: c0 90:       add (2rus)      r0, r4, 0x0
             0x00080e56: 00 f0 5f d4: bl (lu10)       -0x5f <__malloc>
             0x00080e5a: 40 90:       add (2rus)      r4, r0, 0x0
             0x00080e5c: 00 f0 c6 d2: bl (lu10)       0x2c6 <__malloc_unlock>
             0x00080e60: c0 90:       add (2rus)      r0, r4, 0x0
             0x00080e62: 02 5d:       ldw (ru6)       r4, sp[0x2]
             0x00080e64: c4 77:       retsp (u6)      0x4
             0x00080e66: 00 00:       stw (2rus)      r0, r0[0x0]

<__errno>:
             0x00080e68: 00 f0 40 77: entsp (lu6)     0x0
             0x00080e6c: ee 17:       get (0r)        r11, id
             0x00080e6e: 04 f0 01 60: ldaw (lru6)     r0, dp[0x101]
             0x00080e72: 83 fc ec 1f: ldaw (l3r)      r0, r0[r11]
             0x00080e76: c0 77:       retsp (u6)      0x0

<_fwalk>:
             0x00080e78: 00 f0 4c 77: entsp (lu6)     0xc
             0x00080e7c: 06 f9 ec f7: std (l2rus)     r5, r4, sp[0x2]
             0x00080e80: 2f f9 ec f7: std (l2rus)     r7, r6, sp[0x3]
             0x00080e84: 44 fc ec f7: std (l2rus)     r9, r8, sp[0x4]
             0x00080e88: 8a 56:       stw (ru6)       r10, sp[0xa]
             0x00080e8a: 03 54:       stw (ru6)       r0, sp[0x3]
             0x00080e8c: 00 f0 6a d6: bl (lu10)       -0x26a <__sfp_lock_acquire>
             0x00080e90: c0 69:       ldc (ru6)       r7, 0x0
             0x00080e92: 02 f0 62 60: ldaw (lru6)     r1, dp[0xa2]
             0x00080e96: 01 f0 9c 6a: ldc (lru6)      r10, 0x5c
             0x00080e9a: 08 f0 40 6a: ldc (lru6)      r9, 0x200
             0x00080e9e: 1c 91:       add (2rus)      r5, r7, 0x0
.label136    0x00080ea0: 45 08:       ldw (2rus)      r4, r1[0x1]
             0x00080ea2: d1 a6:       mkmsk (rus)     r0, 0x1
             0x00080ea4: c0 c0:       lss (3r)        r0, r4, r0
             0x00080ea6: 29 70:       bt (ru6)        r0, 0x29 <.label129>
             0x00080ea8: 42 54:       stw (ru6)       r1, sp[0x2]
             0x00080eaa: 66 08:       ldw (2rus)      r6, r1[0x2]
.label134    0x00080eac: 01 99:       sub (2rus)      r4, r4, 0x1
             0x00080eae: 4b f9 ec 9f: ldaw (l2rus)    r8, r6[0x3]
             0x00080eb2: c3 83:       ld16s (3r)      r0, r8[r7]
             0x00080eb4: 31 47:       zext (rus)      r0, 0x10
             0x00080eb6: 1d 78:       bf (ru6)        r0, 0x1d <.label130>
             0x00080eb8: 91 3c:       and (3r)        r1, r0, r9
             0x00080eba: 48 70:       bt (ru6)        r1, 0x8 <.label131>
             0x00080ebc: 01 f0 14 68: ldc (lru6)      r0, 0x54
             0x00080ec0: c8 10:       add (3r)        r0, r6, r0
             0x00080ec2: 00 f0 b3 d6: bl (lu10)       -0x2b3 <__lock_recursive_acquire>
             0x00080ec6: c3 83:       ld16s (3r)      r0, r8[r7]
             0x00080ec8: 31 47:       zext (rus)      r0, 0x10
             0x00080eca: 0e 78:       bf (ru6)        r0, 0xe <.label132>
.label131    0x00080ecc: 4e 68:       ldc (ru6)       r1, 0xe
             0x00080ece: d9 10:       add (3r)        r1, r6, r1
             0x00080ed0: 57 82:       ld16s (3r)      r1, r1[r7]
             0x00080ed2: 35 47:       zext (rus)      r1, 0x10
             0x00080ed4: 39 a7:       mkmsk (rus)     r2, 0x10
             0x00080ed6: 16 30:       eq (3r)         r1, r1, r2
             0x00080ed8: 45 70:       bt (ru6)        r1, 0x5 <.label133>
             0x00080eda: c8 90:       add (2rus)      r0, r6, 0x0
             0x00080edc: 43 5c:       ldw (ru6)       r1, sp[0x3]
             0x00080ede: e1 27:       bla (1r)        r1
             0x00080ee0: 91 42:       or (3r)         r5, r0, r5
             0x00080ee2: c3 83:       ld16s (3r)      r0, r8[r7]
.label133    0x00080ee4: 81 3c:       and (3r)        r0, r0, r9
             0x00080ee6: 05 70:       bt (ru6)        r0, 0x5 <.label130>
.label132    0x00080ee8: 01 f0 14 68: ldc (lru6)      r0, 0x54
             0x00080eec: c8 10:       add (3r)        r0, r6, r0
             0x00080eee: 00 f0 ab d6: bl (lu10)       -0x2ab <__lock_recursive_release>
.label130    0x00080ef2: aa 15:       add (3r)        r6, r6, r10
             0x00080ef4: 0c c3:       lss (3r)        r0, r7, r4
             0x00080ef6: 26 74:       bt (ru6)        r0, -0x26 <.label134>
             0x00080ef8: 01 73:       bu (u6)         0x1 <.label135>
.label129    0x00080efa: 42 54:       stw (ru6)       r1, sp[0x2]
.label135    0x00080efc: 42 5c:       ldw (ru6)       r1, sp[0x2]
             0x00080efe: 14 08:       ldw (2rus)      r1, r1[0x0]
             0x00080f00: 71 74:       bt (ru6)        r1, -0x31 <.label136>
             0x00080f02: 00 f0 6f d6: bl (lu10)       -0x26f <__sfp_lock_release>
             0x00080f06: c4 90:       add (2rus)      r0, r5, 0x0
             0x00080f08: 8a 5e:       ldw (ru6)       r10, sp[0xa]
             0x00080f0a: 44 fc ec ef: ldd (l2rus)     r9, r8, sp[0x4]
             0x00080f0e: 2f f9 ec ef: ldd (l2rus)     r7, r6, sp[0x3]
             0x00080f12: 06 f9 ec ef: ldd (l2rus)     r5, r4, sp[0x2]
             0x00080f16: cc 77:       retsp (u6)      0xc

<_fflush>:
             0x00080f18: 00 f0 4a 77: entsp (lu6)     0xa
             0x00080f1c: 05 f9 ec f7: std (l2rus)     r5, r4, sp[0x1]
             0x00080f20: 2e f9 ec f7: std (l2rus)     r7, r6, sp[0x2]
             0x00080f24: 07 fa ec f7: std (l2rus)     r9, r8, sp[0x3]
             0x00080f28: 88 56:       stw (ru6)       r10, sp[0x8]
             0x00080f2a: 40 90:       add (2rus)      r4, r0, 0x0
             0x00080f2c: 02 f0 3a 58: ldw (lru6)      r0, dp[0xba]
             0x00080f30: 02 70:       bt (ru6)        r0, 0x2 <.label137>
             0x00080f32: 00 f0 b5 d6: bl (lu10)       -0x2b5 <__sinit>
.label137    0x00080f36: 53 f9 ec 9f: ldaw (l2rus)    r9, r4[0x3]
             0x00080f3a: c0 69:       ldc (ru6)       r7, 0x0
             0x00080f3c: c7 83:       ld16s (3r)      r0, r9[r7]
             0x00080f3e: 08 f0 00 6a: ldc (lru6)      r8, 0x200
             0x00080f42: 90 3c:       and (3r)        r1, r0, r8
             0x00080f44: 42 78:       bf (ru6)        r1, 0x2 <.label138>
             0x00080f46: 31 47:       zext (rus)      r0, 0x10
             0x00080f48: 07 73:       bu (u6)         0x7 <.label139>
.label138    0x00080f4a: 01 f0 14 68: ldc (lru6)      r0, 0x54
             0x00080f4e: c0 10:       add (3r)        r0, r4, r0
             0x00080f50: 00 f0 fa d6: bl (lu10)       -0x2fa <__lock_recursive_acquire>
             0x00080f54: 00 68:       ldc (ru6)       r0, 0x0
             0x00080f56: 84 81:       ld16s (3r)      r0, r9[r0]
.label139    0x00080f58: 10 90:       add (2rus)      r1, r0, 0x0
             0x00080f5a: 35 37:       sext (rus)      r1, 0x10
             0x00080f5c: 88 68:       ldc (ru6)       r2, 0x8
             0x00080f5e: 26 38:       and (3r)        r2, r1, r2
             0x00080f60: 9c 78:       bf (ru6)        r2, 0x1c <.label140>
             0x00080f62: 50 0b:       ldw (2rus)      r5, r4[0x4]
             0x00080f64: 76 79:       bf (ru6)        r5, 0x36 <.label141>
             0x00080f66: e0 08:       ldw (2rus)      r2, r4[0x0]
             0x00080f68: a9 1a:       sub (3r)        r6, r2, r5
             0x00080f6a: 10 01:       stw (2rus)      r5, r4[0x0]
             0x00080f6c: d6 46:       zext (rus)      r1, 0x2
             0x00080f6e: 41 70:       bt (ru6)        r1, 0x1 <.label142>
             0x00080f70: 71 0b:       ldw (2rus)      r7, r4[0x5]
.label142    0x00080f72: 32 01:       stw (2rus)      r7, r4[0x2]
             0x00080f74: d5 a6:       mkmsk (rus)     r1, 0x1
             0x00080f76: d9 c0:       lss (3r)        r1, r6, r1
             0x00080f78: 4e 70:       bt (ru6)        r1, 0xe <.label143>
             0x00080f7a: c0 69:       ldc (ru6)       r7, 0x0
.label145    0x00080f7c: f1 0d:       ldw (2rus)      r11, r4[0x9]
             0x00080f7e: 13 0b:       ldw (2rus)      r1, r4[0x7]
             0x00080f80: cc 90:       add (2rus)      r0, r7, 0x0
             0x00080f82: e4 90:       add (2rus)      r2, r5, 0x0
             0x00080f84: f8 90:       add (2rus)      r3, r6, 0x0
             0x00080f86: eb 27:       bla (1r)        r11
             0x00080f88: dc c0:       lss (3r)        r1, r7, r0
             0x00080f8a: 69 78:       bf (ru6)        r1, 0x29 <.label144>
             0x00080f8c: 14 11:       add (3r)        r5, r5, r0
             0x00080f8e: 28 19:       sub (3r)        r6, r6, r0
             0x00080f90: 0e c3:       lss (3r)        r0, r7, r6
             0x00080f92: 0c 74:       bt (ru6)        r0, -0xc <.label145>
             0x00080f94: c7 83:       ld16s (3r)      r0, r9[r7]
.label143    0x00080f96: 80 3c:       and (3r)        r0, r0, r8
             0x00080f98: 1d 73:       bu (u6)         0x1d <.label146>
.label140    0x00080f9a: 20 f0 00 68: ldc (lru6)      r0, 0x800
             0x00080f9e: 14 40:       or (3r)         r1, r1, r0
             0x00080fa0: 80 6a:       ldc (ru6)       r10, 0x0
             0x00080fa2: 16 fe ec 87: st16 (l3r)      r1, r9[r10]
             0x00080fa6: c1 08:       ldw (2rus)      r0, r4[0x1]
             0x00080fa8: 88 c1:       lss (3r)        r0, r10, r0
             0x00080faa: 07 70:       bt (ru6)        r0, 0x7 <.label147>
             0x00080fac: 3c 68:       ldc (ru6)       r0, 0x3c
             0x00080fae: c0 10:       add (3r)        r0, r4, r0
             0x00080fb0: 00 08:       ldw (2rus)      r0, r0[0x0]
             0x00080fb2: d9 a6:       mkmsk (rus)     r2, 0x1
             0x00080fb4: 02 c0:       lss (3r)        r0, r0, r2
             0x00080fb6: 01 f0 1b 70: bt (lru6)       r0, 0x5b <.label148>
.label147    0x00080fba: 92 0d:       ldw (2rus)      r5, r4[0xa]
             0x00080fbc: 01 f0 58 79: bf (lru6)       r5, 0x58 <.label148>
             0x00080fc0: 40 f0 c0 69: ldc (lru6)      r7, 0x1000
             0x00080fc4: 47 3a:       and (3r)        r0, r1, r7
             0x00080fc6: 14 78:       bf (ru6)        r0, 0x14 <.label149>
             0x00080fc8: 01 f0 10 68: ldc (lru6)      r0, 0x50
             0x00080fcc: c0 10:       add (3r)        r0, r4, r0
             0x00080fce: 60 08:       ldw (2rus)      r6, r0[0x0]
             0x00080fd0: 1d 73:       bu (u6)         0x1d <.label150>
.label141    0x00080fd2: 84 3c:       and (3r)        r0, r1, r8
.label146    0x00080fd4: 40 69:       ldc (ru6)       r5, 0x0
             0x00080fd6: 01 f0 34 70: bt (lru6)       r0, 0x74 <.label151>
             0x00080fda: 01 f0 2d 73: bu (lu6)        0x6d <.label152>
.label144    0x00080fde: c7 83:       ld16s (3r)      r0, r9[r7]
             0x00080fe0: 01 f0 40 68: ldc (lru6)      r1, 0x40
             0x00080fe4: 11 40:       or (3r)         r1, r0, r1
             0x00080fe6: d7 fb ec 87: st16 (l3r)      r1, r9[r7]
             0x00080fea: 80 3c:       and (3r)        r0, r0, r8
             0x00080fec: 01 f0 0f 73: bu (lu6)        0x4f <.label153>
.label149    0x00080ff0: 13 0b:       ldw (2rus)      r1, r4[0x7]
             0x00080ff2: c0 69:       ldc (ru6)       r7, 0x0
             0x00080ff4: dd a6:       mkmsk (rus)     r3, 0x1
             0x00080ff6: cc 90:       add (2rus)      r0, r7, 0x0
             0x00080ff8: ec 90:       add (2rus)      r2, r7, 0x0
             0x00080ffa: e5 27:       bla (1r)        r5
             0x00080ffc: 60 90:       add (2rus)      r6, r0, 0x0
             0x00080ffe: 14 a7:       mkmsk (rus)     r5, 0x20
             0x00081000: 09 33:       eq (3r)         r0, r6, r5
             0x00081002: 01 f0 07 70: bt (lru6)       r0, 0x47 <.label154>
             0x00081006: d7 83:       ld16s (3r)      r1, r9[r7]
             0x00081008: 40 f0 c0 69: ldc (lru6)      r7, 0x1000
.label150    0x0008100c: 04 68:       ldc (ru6)       r0, 0x4
             0x0008100e: 04 38:       and (3r)        r0, r1, r0
             0x00081010: 0a 78:       bf (ru6)        r0, 0xa <.label155>
             0x00081012: c1 08:       ldw (2rus)      r0, r4[0x1]
             0x00081014: 28 19:       sub (3r)        r6, r6, r0
             0x00081016: 30 68:       ldc (ru6)       r0, 0x30
             0x00081018: c0 10:       add (3r)        r0, r4, r0
             0x0008101a: 00 08:       ldw (2rus)      r0, r0[0x0]
             0x0008101c: 04 78:       bf (ru6)        r0, 0x4 <.label155>
             0x0008101e: 3c 68:       ldc (ru6)       r0, 0x3c
             0x00081020: c0 10:       add (3r)        r0, r4, r0
             0x00081022: 00 08:       ldw (2rus)      r0, r0[0x0]
             0x00081024: 28 19:       sub (3r)        r6, r6, r0
.label155    0x00081026: f2 0d:       ldw (2rus)      r11, r4[0xa]
             0x00081028: 13 0b:       ldw (2rus)      r1, r4[0x7]
             0x0008102a: 40 69:       ldc (ru6)       r5, 0x0
             0x0008102c: c4 90:       add (2rus)      r0, r5, 0x0
             0x0008102e: e8 90:       add (2rus)      r2, r6, 0x0
             0x00081030: f4 90:       add (2rus)      r3, r5, 0x0
             0x00081032: eb 27:       bla (1r)        r11
             0x00081034: e5 83:       ld16s (3r)      r2, r9[r5]
             0x00081036: 42 32:       eq (3r)         r0, r0, r6
             0x00081038: 24 78:       bf (ru6)        r0, 0x24 <.label156>
             0x0008103a: df f3 3f 68: ldc (lru6)      r0, 0xf7ff
             0x0008103e: 18 38:       and (3r)        r1, r2, r0
             0x00081040: d5 fb ec 87: st16 (l3r)      r1, r9[r5]
             0x00081044: 11 01:       stw (2rus)      r5, r4[0x1]
             0x00081046: 00 0b:       ldw (2rus)      r0, r4[0x4]
             0x00081048: c0 00:       stw (2rus)      r0, r4[0x0]
             0x0008104a: 4b 3a:       and (3r)        r0, r2, r7
             0x0008104c: 04 78:       bf (ru6)        r0, 0x4 <.label157>
             0x0008104e: 01 f0 10 68: ldc (lru6)      r0, 0x50
             0x00081052: c0 10:       add (3r)        r0, r4, r0
             0x00081054: 60 00:       stw (2rus)      r6, r0[0x0]
.label157    0x00081056: 30 68:       ldc (ru6)       r0, 0x30
             0x00081058: 20 11:       add (3r)        r6, r4, r0
             0x0008105a: c8 08:       ldw (2rus)      r0, r6[0x0]
             0x0008105c: 09 78:       bf (ru6)        r0, 0x9 <.label148>
             0x0008105e: 01 f0 80 68: ldc (lru6)      r2, 0x40
             0x00081062: e2 10:       add (3r)        r2, r4, r2
             0x00081064: 22 30:       eq (3r)         r2, r0, r2
             0x00081066: 83 70:       bt (ru6)        r2, 0x3 <.label158>
             0x00081068: 00 f0 9a d1: bl (lu10)       0x19a <free>
             0x0008106c: d5 83:       ld16s (3r)      r1, r9[r5]
.label158    0x0008106e: 18 01:       stw (2rus)      r5, r6[0x0]
.label148    0x00081070: 84 3c:       and (3r)        r0, r1, r8
             0x00081072: 05 70:       bt (ru6)        r0, 0x5 <.label159>
             0x00081074: 01 f0 14 68: ldc (lru6)      r0, 0x54
             0x00081078: c0 10:       add (3r)        r0, r4, r0
             0x0008107a: 00 f0 71 d7: bl (lu10)       -0x371 <__lock_recursive_release>
.label159    0x0008107e: d8 91:       add (2rus)      r5, r10, 0x0
             0x00081080: 20 73:       bu (u6)         0x20 <.label151>
.label156    0x00081082: 01 f0 00 68: ldc (lru6)      r0, 0x40
             0x00081086: 08 40:       or (3r)         r0, r2, r0
             0x00081088: c5 fb ec 87: st16 (l3r)      r0, r9[r5]
             0x0008108c: 88 3c:       and (3r)        r0, r2, r8
.label153    0x0008108e: 14 a7:       mkmsk (rus)     r5, 0x20
             0x00081090: 18 70:       bt (ru6)        r0, 0x18 <.label151>
             0x00081092: 12 73:       bu (u6)         0x12 <.label152>
.label154    0x00081094: 00 f0 18 d5: bl (lu10)       -0x118 <__errno>
             0x00081098: 00 08:       ldw (2rus)      r0, r0[0x0]
             0x0008109a: 5d 68:       ldc (ru6)       r1, 0x1d
             0x0008109c: 11 30:       eq (3r)         r1, r0, r1
             0x0008109e: c7 83:       ld16s (3r)      r0, r9[r7]
             0x000810a0: 42 78:       bf (ru6)        r1, 0x2 <.label160>
             0x000810a2: 1c 91:       add (2rus)      r5, r7, 0x0
             0x000810a4: 07 73:       bu (u6)         0x7 <.label161>
.label160    0x000810a6: 01 f0 40 68: ldc (lru6)      r1, 0x40
             0x000810aa: 01 40:       or (3r)         r0, r0, r1
             0x000810ac: 31 47:       zext (rus)      r0, 0x10
             0x000810ae: 40 68:       ldc (ru6)       r1, 0x0
             0x000810b0: 85 f9 ec 87: st16 (l3r)      r0, r9[r1]
.label161    0x000810b4: 80 3c:       and (3r)        r0, r0, r8
             0x000810b6: 05 70:       bt (ru6)        r0, 0x5 <.label151>
.label152    0x000810b8: 01 f0 14 68: ldc (lru6)      r0, 0x54
             0x000810bc: c0 10:       add (3r)        r0, r4, r0
             0x000810be: 00 f0 93 d7: bl (lu10)       -0x393 <__lock_recursive_release>
.label151    0x000810c2: c4 90:       add (2rus)      r0, r5, 0x0
             0x000810c4: 88 5e:       ldw (ru6)       r10, sp[0x8]
             0x000810c6: 07 fa ec ef: ldd (l2rus)     r9, r8, sp[0x3]
             0x000810ca: 2e f9 ec ef: ldd (l2rus)     r7, r6, sp[0x2]
             0x000810ce: 05 f9 ec ef: ldd (l2rus)     r5, r4, sp[0x1]
             0x000810d2: ca 77:       retsp (u6)      0xa

<__sread>:
             0x000810d4: 00 f0 44 77: entsp (lu6)     0x4
             0x000810d8: 05 f9 ec f7: std (l2rus)     r5, r4, sp[0x1]
             0x000810dc: 44 90:       add (2rus)      r4, r1, 0x0
             0x000810de: 0e 68:       ldc (ru6)       r0, 0xe
             0x000810e0: c0 10:       add (3r)        r0, r4, r0
             0x000810e2: 40 69:       ldc (ru6)       r5, 0x0
             0x000810e4: 41 82:       ld16s (3r)      r0, r0[r5]
             0x000810e6: 18 90:       add (2rus)      r1, r2, 0x0
             0x000810e8: 2c 90:       add (2rus)      r2, r3, 0x0
             0x000810ea: 00 f0 87 d1: bl (lu10)       0x187 <_read>
             0x000810ee: 10 f8 ec 97: ashr (l2rus)    r1, r0, 0x20
             0x000810f2: 47 70:       bt (ru6)        r1, 0x7 <.label162>
             0x000810f4: 01 f0 50 68: ldc (lru6)      r1, 0x50
             0x000810f8: d1 10:       add (3r)        r1, r4, r1
             0x000810fa: 24 08:       ldw (2rus)      r2, r1[0x0]
             0x000810fc: 28 10:       add (3r)        r2, r2, r0
             0x000810fe: 24 00:       stw (2rus)      r2, r1[0x0]
             0x00081100: 08 73:       bu (u6)         0x8 <.label163>
.label162    0x00081102: d3 f8 ec 9f: ldaw (l2rus)    r1, r4[0x3]
             0x00081106: 65 82:       ld16s (3r)      r2, r1[r5]
             0x00081108: bf f3 ff 68: ldc (lru6)      r3, 0xefff
             0x0008110c: 2b 38:       and (3r)        r2, r2, r3
             0x0008110e: 65 fa ec 87: st16 (l3r)      r2, r1[r5]
.label163    0x00081112: 05 f9 ec ef: ldd (l2rus)     r5, r4, sp[0x1]
             0x00081116: c4 77:       retsp (u6)      0x4

<__swrite>:
             0x00081118: 00 f0 48 77: entsp (lu6)     0x8
             0x0008111c: 05 f9 ec f7: std (l2rus)     r5, r4, sp[0x1]
             0x00081120: 2e f9 ec f7: std (l2rus)     r7, r6, sp[0x2]
             0x00081124: 06 56:       stw (ru6)       r8, sp[0x6]
             0x00081126: 4c 90:       add (2rus)      r4, r3, 0x0
             0x00081128: 58 90:       add (2rus)      r5, r2, 0x0
             0x0008112a: 64 90:       add (2rus)      r6, r1, 0x0
             0x0008112c: 4b f9 ec 9f: ldaw (l2rus)    r8, r6[0x3]
             0x00081130: c0 69:       ldc (ru6)       r7, 0x0
             0x00081132: c3 83:       ld16s (3r)      r0, r8[r7]
             0x00081134: 04 f0 40 68: ldc (lru6)      r1, 0x100
             0x00081138: 11 38:       and (3r)        r1, r0, r1
             0x0008113a: 49 78:       bf (ru6)        r1, 0x9 <.label164>
             0x0008113c: 0e 68:       ldc (ru6)       r0, 0xe
             0x0008113e: c8 10:       add (3r)        r0, r6, r0
             0x00081140: 43 82:       ld16s (3r)      r0, r0[r7]
             0x00081142: 82 68:       ldc (ru6)       r2, 0x2
             0x00081144: dc 90:       add (2rus)      r1, r7, 0x0
             0x00081146: 00 f0 63 d1: bl (lu10)       0x163 <_lseek>
             0x0008114a: c3 83:       ld16s (3r)      r0, r8[r7]
             0x0008114c: 01 73:       bu (u6)         0x1 <.label165>
.label164    0x0008114e: 31 47:       zext (rus)      r0, 0x10
.label165    0x00081150: bf f3 7f 68: ldc (lru6)      r1, 0xefff
             0x00081154: 01 38:       and (3r)        r0, r0, r1
             0x00081156: c3 fb ec 87: st16 (l3r)      r0, r8[r7]
             0x0008115a: 0e 68:       ldc (ru6)       r0, 0xe
             0x0008115c: c8 10:       add (3r)        r0, r6, r0
             0x0008115e: 43 82:       ld16s (3r)      r0, r0[r7]
             0x00081160: d4 90:       add (2rus)      r1, r5, 0x0
             0x00081162: e0 90:       add (2rus)      r2, r4, 0x0
             0x00081164: 01 f0 56 d4: bl (lu10)       -0x456 <_write>
             0x00081168: 06 5e:       ldw (ru6)       r8, sp[0x6]
             0x0008116a: 2e f9 ec ef: ldd (l2rus)     r7, r6, sp[0x2]
             0x0008116e: 05 f9 ec ef: ldd (l2rus)     r5, r4, sp[0x1]
             0x00081172: c8 77:       retsp (u6)      0x8

<__sseek>:
             0x00081174: 00 f0 44 77: entsp (lu6)     0x4
             0x00081178: 05 f9 ec f7: std (l2rus)     r5, r4, sp[0x1]
             0x0008117c: 44 90:       add (2rus)      r4, r1, 0x0
             0x0008117e: 0e 68:       ldc (ru6)       r0, 0xe
             0x00081180: c0 10:       add (3r)        r0, r4, r0
             0x00081182: 40 69:       ldc (ru6)       r5, 0x0
             0x00081184: 41 82:       ld16s (3r)      r0, r0[r5]
             0x00081186: 18 90:       add (2rus)      r1, r2, 0x0
             0x00081188: 2c 90:       add (2rus)      r2, r3, 0x0
             0x0008118a: 00 f0 41 d1: bl (lu10)       0x141 <_lseek>
             0x0008118e: d3 f8 ec 9f: ldaw (l2rus)    r1, r4[0x3]
             0x00081192: 65 82:       ld16s (3r)      r2, r1[r5]
             0x00081194: dc a6:       mkmsk (rus)     r3, 0x20
             0x00081196: 33 30:       eq (3r)         r3, r0, r3
             0x00081198: ca 70:       bt (ru6)        r3, 0xa <.label166>
             0x0008119a: 40 f0 c0 68: ldc (lru6)      r3, 0x1000
             0x0008119e: 2b 40:       or (3r)         r2, r2, r3
             0x000811a0: 65 fa ec 87: st16 (l3r)      r2, r1[r5]
             0x000811a4: 01 f0 50 68: ldc (lru6)      r1, 0x50
             0x000811a8: d1 10:       add (3r)        r1, r4, r1
             0x000811aa: 04 00:       stw (2rus)      r0, r1[0x0]
             0x000811ac: 05 73:       bu (u6)         0x5 <.label167>
.label166    0x000811ae: bf f3 ff 68: ldc (lru6)      r3, 0xefff
             0x000811b2: 2b 38:       and (3r)        r2, r2, r3
             0x000811b4: 65 fa ec 87: st16 (l3r)      r2, r1[r5]
.label167    0x000811b8: 05 f9 ec ef: ldd (l2rus)     r5, r4, sp[0x1]
             0x000811bc: c4 77:       retsp (u6)      0x4
             0x000811be: 00 00:       stw (2rus)      r0, r0[0x0]

<__sclose>:
             0x000811c0: 00 f0 42 77: entsp (lu6)     0x2
             0x000811c4: 0e 68:       ldc (ru6)       r0, 0xe
             0x000811c6: 04 10:       add (3r)        r0, r1, r0
             0x000811c8: 40 68:       ldc (ru6)       r1, 0x0
             0x000811ca: 01 80:       ld16s (3r)      r0, r0[r1]
             0x000811cc: 00 f0 2a d1: bl (lu10)       0x12a <_close>
             0x000811d0: c2 77:       retsp (u6)      0x2
             0x000811d2: 00 00:       stw (2rus)      r0, r0[0x0]

<__swsetup>:
             0x000811d4: 00 f0 48 77: entsp (lu6)     0x8
             0x000811d8: 05 f9 ec f7: std (l2rus)     r5, r4, sp[0x1]
             0x000811dc: 2e f9 ec f7: std (l2rus)     r7, r6, sp[0x2]
             0x000811e0: 06 56:       stw (ru6)       r8, sp[0x6]
             0x000811e2: 50 90:       add (2rus)      r5, r0, 0x0
             0x000811e4: 02 f0 3a 58: ldw (lru6)      r0, dp[0xba]
             0x000811e8: 02 70:       bt (ru6)        r0, 0x2 <.label168>
             0x000811ea: 01 f0 11 d4: bl (lu10)       -0x411 <__sinit>
.label168    0x000811ee: 27 f9 ec 9f: ldaw (l2rus)    r6, r5[0x3]
             0x000811f2: 00 69:       ldc (ru6)       r4, 0x0
             0x000811f4: 18 83:       ld16s (3r)      r1, r6[r4]
             0x000811f6: c8 69:       ldc (ru6)       r7, 0x8
             0x000811f8: 47 3a:       and (3r)        r0, r1, r7
             0x000811fa: 23 70:       bt (ru6)        r0, 0x23 <.label169>
             0x000811fc: 10 68:       ldc (ru6)       r0, 0x10
             0x000811fe: 04 38:       and (3r)        r0, r1, r0
             0x00081200: 3d 78:       bf (ru6)        r0, 0x3d <.label170>
             0x00081202: 04 68:       ldc (ru6)       r0, 0x4
             0x00081204: 04 38:       and (3r)        r0, r1, r0
             0x00081206: 18 78:       bf (ru6)        r0, 0x18 <.label171>
             0x00081208: 30 68:       ldc (ru6)       r0, 0x30
             0x0008120a: 44 11:       add (3r)        r8, r5, r0
             0x0008120c: 80 09:       ldw (2rus)      r0, r8[0x0]
             0x0008120e: 0b 78:       bf (ru6)        r0, 0xb <.label172>
             0x00081210: 01 f0 80 68: ldc (lru6)      r2, 0x40
             0x00081214: e6 10:       add (3r)        r2, r5, r2
             0x00081216: 22 30:       eq (3r)         r2, r0, r2
             0x00081218: 84 70:       bt (ru6)        r2, 0x4 <.label173>
             0x0008121a: 00 f0 c1 d0: bl (lu10)       0xc1 <free>
             0x0008121e: 00 68:       ldc (ru6)       r0, 0x0
             0x00081220: d8 80:       ld16s (3r)      r1, r6[r0]
.label173    0x00081222: 00 68:       ldc (ru6)       r0, 0x0
             0x00081224: 80 01:       stw (2rus)      r0, r8[0x0]
.label172    0x00081226: ff f3 1b 68: ldc (lru6)      r0, 0xffdb
             0x0008122a: 14 38:       and (3r)        r1, r1, r0
             0x0008122c: 00 68:       ldc (ru6)       r0, 0x0
             0x0008122e: d8 f8 ec 87: st16 (l3r)      r1, r6[r0]
             0x00081232: c5 00:       stw (2rus)      r0, r5[0x1]
             0x00081234: 04 0b:       ldw (2rus)      r0, r5[0x4]
             0x00081236: c4 00:       stw (2rus)      r0, r5[0x0]
.label171    0x00081238: 57 42:       or (3r)         r1, r1, r7
             0x0008123a: 35 47:       zext (rus)      r1, 0x10
             0x0008123c: 00 68:       ldc (ru6)       r0, 0x0
             0x0008123e: d8 f8 ec 87: st16 (l3r)      r1, r6[r0]
.label169    0x00081242: 04 0b:       ldw (2rus)      r0, r5[0x4]
             0x00081244: 0c 70:       bt (ru6)        r0, 0xc <.label174>
             0x00081246: 0a f0 00 68: ldc (lru6)      r0, 0x280
             0x0008124a: 04 38:       and (3r)        r0, r1, r0
             0x0008124c: 31 47:       zext (rus)      r0, 0x10
             0x0008124e: 08 f0 80 68: ldc (lru6)      r2, 0x200
             0x00081252: 02 30:       eq (3r)         r0, r0, r2
             0x00081254: 04 70:       bt (ru6)        r0, 0x4 <.label174>
             0x00081256: c4 90:       add (2rus)      r0, r5, 0x0
             0x00081258: 00 f0 ec d0: bl (lu10)       0xec <__smakebuf>
             0x0008125c: 18 83:       ld16s (3r)      r1, r6[r4]
.label174    0x0008125e: 04 90:       add (2rus)      r0, r1, 0x0
             0x00081260: 31 37:       sext (rus)      r0, 0x10
             0x00081262: 20 90:       add (2rus)      r2, r0, 0x0
             0x00081264: d9 46:       zext (rus)      r2, 0x1
             0x00081266: 85 78:       bf (ru6)        r2, 0x5 <.label175>
             0x00081268: 06 01:       stw (2rus)      r4, r5[0x2]
             0x0008126a: 05 0b:       ldw (2rus)      r0, r5[0x5]
             0x0008126c: c0 96:       neg (2r)        r0, r0
             0x0008126e: 06 03:       stw (2rus)      r0, r5[0x6]
             0x00081270: 09 73:       bu (u6)         0x9 <.label176>
.label175    0x00081272: 82 68:       ldc (ru6)       r2, 0x2
             0x00081274: 02 38:       and (3r)        r0, r0, r2
             0x00081276: 04 78:       bf (ru6)        r0, 0x4 <.label177>
             0x00081278: 00 68:       ldc (ru6)       r0, 0x0
             0x0008127a: 03 73:       bu (u6)         0x3 <.label178>
.label170    0x0008127c: 10 a7:       mkmsk (rus)     r4, 0x20
             0x0008127e: 09 73:       bu (u6)         0x9 <.label179>
.label177    0x00081280: 05 0b:       ldw (2rus)      r0, r5[0x5]
.label178    0x00081282: c6 00:       stw (2rus)      r0, r5[0x2]
.label176    0x00081284: 04 0b:       ldw (2rus)      r0, r5[0x4]
             0x00081286: 04 70:       bt (ru6)        r0, 0x4 <.label180>
             0x00081288: 02 f0 00 68: ldc (lru6)      r0, 0x80
             0x0008128c: 04 38:       and (3r)        r0, r1, r0
             0x0008128e: 83 aa:       shr (2rus)      r4, r0, 0x7
.label180    0x00081290: 11 37:       sext (rus)      r4, 0x1
.label179    0x00081292: c0 90:       add (2rus)      r0, r4, 0x0
             0x00081294: 06 5e:       ldw (ru6)       r8, sp[0x6]
             0x00081296: 2e f9 ec ef: ldd (l2rus)     r7, r6, sp[0x2]
             0x0008129a: 05 f9 ec ef: ldd (l2rus)     r5, r4, sp[0x1]
             0x0008129e: c8 77:       retsp (u6)      0x8

<realloc>:
             0x000812a0: 00 f0 46 77: entsp (lu6)     0x6
             0x000812a4: 05 f9 ec f7: std (l2rus)     r5, r4, sp[0x1]
             0x000812a8: 2e f9 ec f7: std (l2rus)     r7, r6, sp[0x2]
             0x000812ac: 54 90:       add (2rus)      r5, r1, 0x0
             0x000812ae: 40 90:       add (2rus)      r4, r0, 0x0
             0x000812b0: 00 f0 94 d0: bl (lu10)       0x94 <__malloc_lock>
             0x000812b4: 04 68:       ldc (ru6)       r0, 0x4
             0x000812b6: c4 c8:       lsu (3r)        r0, r5, r0
             0x000812b8: 02 78:       bf (ru6)        r0, 0x2 <.label181>
             0x000812ba: 08 68:       ldc (ru6)       r0, 0x8
             0x000812bc: 06 73:       bu (u6)         0x6 <.label182>
.label181    0x000812be: 00 f0 22 6c: ldw (lru6)      r0, cp[0x22]
             0x000812c2: 41 1a:       sub (3r)        r0, r0, r5
             0x000812c4: d3 46:       zext (rus)      r0, 0x3
             0x000812c6: c4 10:       add (3r)        r0, r5, r0
             0x000812c8: 40 92:       add (2rus)      r0, r0, 0x4
.label182    0x000812ca: 15 79:       bf (ru6)        r4, 0x15 <.label183>
             0x000812cc: 10 9b:       sub (2rus)      r1, r4, 0x4
             0x000812ce: 74 08:       ldw (2rus)      r7, r1[0x0]
             0x000812d0: ec c8:       lsu (3r)        r2, r7, r0
             0x000812d2: 96 78:       bf (ru6)        r2, 0x16 <.label184>
             0x000812d4: c4 90:       add (2rus)      r0, r5, 0x0
             0x000812d6: 00 f0 9f d6: bl (lu10)       -0x29f <__malloc>
             0x000812da: 60 90:       add (2rus)      r6, r0, 0x0
             0x000812dc: 9d 79:       bf (ru6)        r6, 0x1d <.label185>
             0x000812de: 2c 9b:       sub (2rus)      r2, r7, 0x4
             0x000812e0: 49 ca:       lsu (3r)        r0, r2, r5
             0x000812e2: 01 70:       bt (ru6)        r0, 0x1 <.label186>
             0x000812e4: e4 90:       add (2rus)      r2, r5, 0x0
.label186    0x000812e6: c8 90:       add (2rus)      r0, r6, 0x0
             0x000812e8: d0 90:       add (2rus)      r1, r4, 0x0
             0x000812ea: 01 f0 3b d5: bl (lu10)       -0x53b <__memcpy_4> <memcpy>
             0x000812ee: c0 90:       add (2rus)      r0, r4, 0x0
             0x000812f0: 00 f0 1c d0: bl (lu10)       0x1c <__free>
             0x000812f4: 12 73:       bu (u6)         0x12 <.label187>
.label183    0x000812f6: c4 90:       add (2rus)      r0, r5, 0x0
             0x000812f8: 00 f0 b0 d6: bl (lu10)       -0x2b0 <__malloc>
             0x000812fc: 60 90:       add (2rus)      r6, r0, 0x0
             0x000812fe: 0d 73:       bu (u6)         0xd <.label187>
.label184    0x00081300: ec 18:       sub (3r)        r2, r7, r0
             0x00081302: c8 68:       ldc (ru6)       r3, 0x8
             0x00081304: 3b c8:       lsu (3r)        r3, r2, r3
             0x00081306: c6 70:       bt (ru6)        r3, 0x6 <.label188>
             0x00081308: 31 10:       add (3r)        r3, r0, r1
             0x0008130a: 04 00:       stw (2rus)      r0, r1[0x0]
             0x0008130c: 2c 00:       stw (2rus)      r2, r3[0x0]
             0x0008130e: 4c 92:       add (2rus)      r0, r3, 0x4
             0x00081310: 00 f0 0c d0: bl (lu10)       0xc <__free>
.label188    0x00081314: 20 91:       add (2rus)      r6, r4, 0x0
             0x00081316: 01 73:       bu (u6)         0x1 <.label187>
.label185    0x00081318: 80 69:       ldc (ru6)       r6, 0x0
.label187    0x0008131a: 00 f0 67 d0: bl (lu10)       0x67 <__malloc_unlock>
             0x0008131e: c8 90:       add (2rus)      r0, r6, 0x0
             0x00081320: 2e f9 ec ef: ldd (l2rus)     r7, r6, sp[0x2]
             0x00081324: 05 f9 ec ef: ldd (l2rus)     r5, r4, sp[0x1]
             0x00081328: c6 77:       retsp (u6)      0x6
             0x0008132a: 00 00:       stw (2rus)      r0, r0[0x0]

<__free>:
             0x0008132c: 00 f0 40 77: entsp (lu6)     0x0
             0x00081330: 84 77:       extsp (u6)      0x4
             0x00081332: 04 f9 ec f7: std (l2rus)     r5, r4, sp[0x0]
             0x00081336: 82 55:       stw (ru6)       r6, sp[0x2]
             0x00081338: 2e 78:       bf (ru6)        r0, 0x2e <.label189>
             0x0008133a: 40 9a:       sub (2rus)      r0, r0, 0x4
             0x0008133c: 04 f0 40 58: ldw (lru6)      r1, dp[0x100]
             0x00081340: c0 68:       ldc (ru6)       r3, 0x0
             0x00081342: 50 78:       bf (ru6)        r1, 0x10 <.label190>
             0x00081344: b0 08:       ldw (2rus)      r11, r0[0x0]
             0x00081346: cc 11:       add (3r)        r4, r11, r0
             0x00081348: 04 f0 80 60: ldaw (lru6)     r2, dp[0x100]
.label194    0x0008134c: 54 08:       ldw (2rus)      r5, r1[0x0]
             0x0008134e: 25 11:       add (3r)        r6, r5, r1
             0x00081350: 28 31:       eq (3r)         r6, r6, r0
             0x00081352: 8b 71:       bt (ru6)        r6, 0xb <.label191>
             0x00081354: a4 32:       eq (3r)         r6, r1, r4
             0x00081356: 97 71:       bt (ru6)        r6, 0x17 <.label192>
             0x00081358: 51 c8:       lsu (3r)        r5, r0, r1
             0x0008135a: 5a 71:       bt (ru6)        r5, 0x1a <.label193>
             0x0008135c: 64 92:       add (2rus)      r2, r1, 0x4
             0x0008135e: 18 08:       ldw (2rus)      r1, r2[0x0]
             0x00081360: 4b 74:       bt (ru6)        r1, -0xb <.label194>
             0x00081362: 17 73:       bu (u6)         0x17 <.label195>
.label190    0x00081364: 04 f0 80 60: ldaw (lru6)     r2, dp[0x100]
             0x00081368: 14 73:       bu (u6)         0x14 <.label195>
.label191    0x0008136a: ed 13:       add (3r)        r2, r11, r5
             0x0008136c: 24 00:       stw (2rus)      r2, r1[0x0]
             0x0008136e: 35 08:       ldw (2rus)      r3, r1[0x1]
             0x00081370: d2 78:       bf (ru6)        r3, 0x12 <.label189>
             0x00081372: b0 08:       ldw (2rus)      r11, r0[0x0]
             0x00081374: 8c 11:       add (3r)        r0, r11, r0
             0x00081376: 03 30:       eq (3r)         r0, r0, r3
             0x00081378: 0e 78:       bf (ru6)        r0, 0xe <.label189>
             0x0008137a: 0c 08:       ldw (2rus)      r0, r3[0x0]
             0x0008137c: 02 10:       add (3r)        r0, r0, r2
             0x0008137e: 04 00:       stw (2rus)      r0, r1[0x0]
             0x00081380: 0d 08:       ldw (2rus)      r0, r3[0x1]
             0x00081382: 05 00:       stw (2rus)      r0, r1[0x1]
             0x00081384: 08 73:       bu (u6)         0x8 <.label189>
.label192    0x00081386: fd 13:       add (3r)        r3, r11, r5
             0x00081388: 30 00:       stw (2rus)      r3, r0[0x0]
             0x0008138a: 15 08:       ldw (2rus)      r1, r1[0x1]
             0x0008138c: 11 00:       stw (2rus)      r1, r0[0x1]
             0x0008138e: 02 73:       bu (u6)         0x2 <.label196>
.label193    0x00081390: 34 90:       add (2rus)      r3, r1, 0x0
.label195    0x00081392: 31 00:       stw (2rus)      r3, r0[0x1]
.label196    0x00081394: 08 00:       stw (2rus)      r0, r2[0x0]
.label189    0x00081396: 82 5d:       ldw (ru6)       r6, sp[0x2]
             0x00081398: 04 f9 ec ef: ldd (l2rus)     r5, r4, sp[0x0]
             0x0008139c: 84 67:       ldaw (ru6)      sp, sp[0x4]
             0x0008139e: c0 77:       retsp (u6)      0x0

<free>:
             0x000813a0: 00 f0 44 77: entsp (lu6)     0x4
             0x000813a4: 02 55:       stw (ru6)       r4, sp[0x2]
             0x000813a6: 40 90:       add (2rus)      r4, r0, 0x0
             0x000813a8: 00 f0 18 d0: bl (lu10)       0x18 <__malloc_lock>
             0x000813ac: c0 90:       add (2rus)      r0, r4, 0x0
             0x000813ae: 00 f0 43 d4: bl (lu10)       -0x43 <__free>
             0x000813b2: 00 f0 1b d0: bl (lu10)       0x1b <__malloc_unlock>
             0x000813b6: 02 5d:       ldw (ru6)       r4, sp[0x2]
             0x000813b8: c4 77:       retsp (u6)      0x4
             0x000813ba: 00 00:       stw (2rus)      r0, r0[0x0]

<memchr>:
             0x000813bc: 00 f0 40 77: entsp (lu6)     0x0
             0x000813c0: 8a 78:       bf (ru6)        r2, 0xa <.label197>
             0x000813c2: 34 47:       zext (rus)      r1, 0x8
             0x000813c4: c0 68:       ldc (ru6)       r3, 0x0
.label199    0x000813c6: b3 88:       ld8u (3r)       r11, r0[r3]
             0x000813c8: 3d 32:       eq (3r)         r11, r11, r1
             0x000813ca: c6 72:       bt (ru6)        r11, 0x6 <.label198>
             0x000813cc: 29 98:       sub (2rus)      r2, r2, 0x1
             0x000813ce: 01 90:       add (2rus)      r0, r0, 0x1
             0x000813d0: 86 74:       bt (ru6)        r2, -0x6 <.label199>
             0x000813d2: 0c 90:       add (2rus)      r0, r3, 0x0
             0x000813d4: 01 73:       bu (u6)         0x1 <.label198>
.label197    0x000813d6: 00 68:       ldc (ru6)       r0, 0x0
.label198    0x000813d8: c0 77:       retsp (u6)      0x0
             0x000813da: 00 00:       stw (2rus)      r0, r0[0x0]

<__malloc_lock>:
             0x000813dc: 00 f0 42 77: entsp (lu6)     0x2
             0x000813e0: 04 f0 09 60: ldaw (lru6)     r0, dp[0x109]
             0x000813e4: 01 f0 62 d5: bl (lu10)       -0x562 <__lock_fair_acquire>
             0x000813e8: c2 77:       retsp (u6)      0x2
             0x000813ea: 00 00:       stw (2rus)      r0, r0[0x0]

<__malloc_unlock>:
             0x000813ec: 00 f0 42 77: entsp (lu6)     0x2
             0x000813f0: 04 f0 09 60: ldaw (lru6)     r0, dp[0x109]
             0x000813f4: 01 f0 5a d5: bl (lu10)       -0x55a <__lock_fair_release>
             0x000813f8: c2 77:       retsp (u6)      0x2
             0x000813fa: 00 00:       stw (2rus)      r0, r0[0x0]

<_read>:
             0x000813fc: 00 f0 40 77: entsp (lu6)     0x0
             0x00081400: 38 90:       add (2rus)      r3, r2, 0x0
             0x00081402: 24 90:       add (2rus)      r2, r1, 0x0
             0x00081404: 10 90:       add (2rus)      r1, r0, 0x0
             0x00081406: 05 68:       ldc (ru6)       r0, 0x5
             0x00081408: 00 f0 48 df: ldap (lu10)     r11, -0x348 <_DoSyscallErrno>
             0x0008140c: fb 27:       bau (1r)        r11
             0x0008140e: 00 00:       stw (2rus)      r0, r0[0x0]

<_lseek>:
             0x00081410: 00 f0 40 77: entsp (lu6)     0x0
             0x00081414: 38 90:       add (2rus)      r3, r2, 0x0
             0x00081416: 24 90:       add (2rus)      r2, r1, 0x0
             0x00081418: 10 90:       add (2rus)      r1, r0, 0x0
             0x0008141a: 08 68:       ldc (ru6)       r0, 0x8
             0x0008141c: 00 f0 52 df: ldap (lu10)     r11, -0x352 <_DoSyscallErrno>
             0x00081420: fb 27:       bau (1r)        r11
             0x00081422: 00 00:       stw (2rus)      r0, r0[0x0]

<_close>:
             0x00081424: 00 f0 40 77: entsp (lu6)     0x0
             0x00081428: 10 90:       add (2rus)      r1, r0, 0x0
             0x0008142a: 04 68:       ldc (ru6)       r0, 0x4
             0x0008142c: 00 f0 5a df: ldap (lu10)     r11, -0x35a <_DoSyscallErrno>
             0x00081430: fb 27:       bau (1r)        r11
             0x00081432: 00 00:       stw (2rus)      r0, r0[0x0]

<__smakebuf>:
             0x00081434: 00 f0 46 77: entsp (lu6)     0x6
             0x00081438: 05 f9 ec f7: std (l2rus)     r5, r4, sp[0x1]
             0x0008143c: 84 55:       stw (ru6)       r6, sp[0x4]
             0x0008143e: 40 90:       add (2rus)      r4, r0, 0x0
             0x00081440: 0c 68:       ldc (ru6)       r0, 0xc
             0x00081442: c0 88:       ld8u (3r)       r0, r4[r0]
             0x00081444: 82 69:       ldc (ru6)       r6, 0x2
             0x00081446: 42 3a:       and (3r)        r0, r0, r6
             0x00081448: 1a 70:       bt (ru6)        r0, 0x1a <.label200>
             0x0008144a: 01 f0 40 69: ldc (lru6)      r5, 0x40
             0x0008144e: c4 90:       add (2rus)      r0, r5, 0x0
             0x00081450: 00 f0 06 d7: bl (lu10)       -0x306 <malloc>
             0x00081454: d3 f8 ec 9f: ldaw (l2rus)    r1, r4[0x3]
             0x00081458: 80 68:       ldc (ru6)       r2, 0x0
             0x0008145a: 36 80:       ld16s (3r)      r3, r1[r2]
             0x0008145c: 09 78:       bf (ru6)        r0, 0x9 <.label201>
             0x0008145e: 02 f0 c0 6a: ldc (lru6)      r11, 0x80
             0x00081462: bf 44:       or (3r)         r3, r3, r11
             0x00081464: 36 f8 ec 87: st16 (l3r)      r3, r1[r2]
             0x00081468: c0 00:       stw (2rus)      r0, r4[0x0]
             0x0008146a: 00 03:       stw (2rus)      r0, r4[0x4]
             0x0008146c: 51 03:       stw (2rus)      r5, r4[0x5]
             0x0008146e: 0e 73:       bu (u6)         0xe <.label202>
.label201    0x00081470: 08 f0 00 68: ldc (lru6)      r0, 0x200
             0x00081474: 0c 38:       and (3r)        r0, r3, r0
             0x00081476: 0a 70:       bt (ru6)        r0, 0xa <.label202>
             0x00081478: 4e 42:       or (3r)         r0, r3, r6
             0x0008147a: 06 f8 ec 87: st16 (l3r)      r0, r1[r2]
.label200    0x0008147e: 01 f0 03 68: ldc (lru6)      r0, 0x43
             0x00081482: c0 10:       add (3r)        r0, r4, r0
             0x00081484: c0 00:       stw (2rus)      r0, r4[0x0]
             0x00081486: 00 03:       stw (2rus)      r0, r4[0x4]
             0x00081488: d1 a6:       mkmsk (rus)     r0, 0x1
             0x0008148a: 01 03:       stw (2rus)      r0, r4[0x5]
.label202    0x0008148c: 84 5d:       ldw (ru6)       r6, sp[0x4]
             0x0008148e: 05 f9 ec ef: ldd (l2rus)     r5, r4, sp[0x1]
             0x00081492: c6 77:       retsp (u6)      0x6

Disassembly of section .cp.rodata (size: 8)

<_cp>:
<.cp.rodata>:
.label11     0x00081494: 30 19 f0 ff: 

<.cp.rodata>:
             0x00081498: f0 19 f0 ff: 

Disassembly of section .cp.rodata.4 (size: 48)

<.cp.rodata.4>:
             0x0008149c: 9c 01 08 00: 
             0x000814a0: 88 01 08 00: 
             0x000814a4: 44 01 08 00: 
             0x000814a8: 14 01 08 00: 
             0x000814ac: 00 00 00 00: 

<main.__xcore_pargs27>:
             0x000814b0: 00 00 00 00: 

<main.__xcore_pargs29>:
             0x000814b4: 00 00 00 00: 

<main.__xcore_pargs31>:
             0x000814b8: 00 00 00 00: 

<main.__xcore_pargs33>:
             0x000814bc: 00 00 00 00: 

<main.__xcore_pargs35>:
             0x000814c0: 00 00 00 00: 

<main.__xcore_pargs37>:
             0x000814c4: 00 00 00 00: 

<main.__xcore_pargs39>:
             0x000814c8: 00 00 00 00: 

Disassembly of section .cp.const4 (size: 44)

<initial_dp>:
             0x000814cc: 20 15 08 00: 

<dp_bss_large_start>:
             0x000814d0: 4c 19 08 00: 

<extmem_bss_start>:
             0x000814d4: 00 00 00 10: 

<.cp.const4>:
<ctor_list_ptr>:
             0x000814d8: 20 15 08 00: 

<.cp.const4>:
<dtor_list_ptr>:
             0x000814dc: 20 15 08 00: 

<.cp.const4>:
<initial_sp>:
             0x000814e0: 78 ff 0f 00: 

<dp_bss_size>:
             0x000814e4: a4 01 00 00: 

<dp_bss_large_size>:
             0x000814e8: 00 00 00 00: 

<extmem_bss_size>:
             0x000814ec: 00 00 00 00: 

<dtors_size>:
             0x000814f0: 00 00 00 00: 

<ctors_size>:
             0x000814f4: 00 00 00 00: 

Disassembly of section .cp.rodata.string (size: 25)

<.cp.rodata.string>:
<.cp.rodata.string>:
<.cp.rodata.string>:
             0x000814f8: 00 00 00 00: 
             0x000814fc: 0a 00 00 00: 
             0x00081500: 45 72 72 6f: 
             0x00081504: 72 3a 20 74: 
             0x00081508: 65 73 74 20: 
             0x0008150c: 66 61 69 6c: 
             0x00081510: 00:          

Disassembly of section .cp.rodata.cst4 (size: 12)

<.cp.rodata.cst4>:
<.cp.rodata.cst4>:
<.cp.rodata.cst4>:
<.cp.rodata.cst4>:
<.cp.rodata.cst4>:
<.cp.rodata.cst4>:
             0x00081514: 00 80 bb 00: 
             0x00081518: e0 ff ff ff: 
             0x0008151c: fc ff ff ff: 

Disassembly of section .dp.data (size: 576)

<_dp>:
<.dp.data>:
<p_din>:
             0x00081520: 00 03 01 00: 
             0x00081524: 00 06 01 00: 
             0x00081528: 00 04 01 00: 
             0x0008152c: 00 05 01 00: 

<p_dout>:
             0x00081530: 00 07 01 00: 
             0x00081534: 00 0a 01 00: 
             0x00081538: 00 08 01 00: 
             0x0008153c: 00 09 01 00: 

<tx_data>:
             0x00081540: 01 00 00 00: 
             0x00081544: 02 00 00 00: 
             0x00081548: 03 00 00 00: 
             0x0008154c: 04 00 00 00: 
             0x00081550: 05 00 00 00: 
             0x00081554: 06 00 00 00: 
             0x00081558: 07 00 00 00: 
             0x0008155c: 08 00 00 00: 
             0x00081560: 65 00 00 00: 
             0x00081564: 66 00 00 00: 
             0x00081568: 67 00 00 00: 
             0x0008156c: 68 00 00 00: 
             0x00081570: 69 00 00 00: 
             0x00081574: 6a 00 00 00: 
             0x00081578: 6b 00 00 00: 
             0x0008157c: 6c 00 00 00: 
             0x00081580: c9 00 00 00: 
             0x00081584: ca 00 00 00: 
             0x00081588: cb 00 00 00: 
             0x0008158c: cc 00 00 00: 
             0x00081590: cd 00 00 00: 
             0x00081594: ce 00 00 00: 
             0x00081598: cf 00 00 00: 
             0x0008159c: d0 00 00 00: 
             0x000815a0: 2d 01 00 00: 
             0x000815a4: 2e 01 00 00: 
             0x000815a8: 2f 01 00 00: 
             0x000815ac: 30 01 00 00: 
             0x000815b0: 31 01 00 00: 
             0x000815b4: 32 01 00 00: 
             0x000815b8: 33 01 00 00: 
             0x000815bc: 34 01 00 00: 
             0x000815c0: 91 01 00 00: 
             0x000815c4: 92 01 00 00: 
             0x000815c8: 93 01 00 00: 
             0x000815cc: 94 01 00 00: 
             0x000815d0: 95 01 00 00: 
             0x000815d4: 96 01 00 00: 
             0x000815d8: 97 01 00 00: 
             0x000815dc: 98 01 00 00: 
             0x000815e0: f5 01 00 00: 
             0x000815e4: f6 01 00 00: 
             0x000815e8: f7 01 00 00: 
             0x000815ec: f8 01 00 00: 
             0x000815f0: f9 01 00 00: 
             0x000815f4: fa 01 00 00: 
             0x000815f8: fb 01 00 00: 
             0x000815fc: fc 01 00 00: 
             0x00081600: 59 02 00 00: 
             0x00081604: 5a 02 00 00: 
             0x00081608: 5b 02 00 00: 
             0x0008160c: 5c 02 00 00: 
             0x00081610: 5d 02 00 00: 
             0x00081614: 5e 02 00 00: 
             0x00081618: 5f 02 00 00: 
             0x0008161c: 60 02 00 00: 
             0x00081620: bd 02 00 00: 
             0x00081624: be 02 00 00: 
             0x00081628: bf 02 00 00: 
             0x0008162c: c0 02 00 00: 
             0x00081630: c1 02 00 00: 
             0x00081634: c2 02 00 00: 
             0x00081638: c3 02 00 00: 
             0x0008163c: c4 02 00 00: 

<rx_data>:
             0x00081640: 01 00 00 00: 
             0x00081644: 02 00 00 00: 
             0x00081648: 03 00 00 00: 
             0x0008164c: 04 00 00 00: 
             0x00081650: 05 00 00 00: 
             0x00081654: 06 00 00 00: 
             0x00081658: 07 00 00 00: 
             0x0008165c: 08 00 00 00: 
             0x00081660: 65 00 00 00: 
             0x00081664: 66 00 00 00: 
             0x00081668: 67 00 00 00: 
             0x0008166c: 68 00 00 00: 
             0x00081670: 69 00 00 00: 
             0x00081674: 6a 00 00 00: 
             0x00081678: 6b 00 00 00: 
             0x0008167c: 6c 00 00 00: 
             0x00081680: c9 00 00 00: 
             0x00081684: ca 00 00 00: 
             0x00081688: cb 00 00 00: 
             0x0008168c: cc 00 00 00: 
             0x00081690: cd 00 00 00: 
             0x00081694: ce 00 00 00: 
             0x00081698: cf 00 00 00: 
             0x0008169c: d0 00 00 00: 
             0x000816a0: 2d 01 00 00: 
             0x000816a4: 2e 01 00 00: 
             0x000816a8: 2f 01 00 00: 
             0x000816ac: 30 01 00 00: 
             0x000816b0: 31 01 00 00: 
             0x000816b4: 32 01 00 00: 
             0x000816b8: 33 01 00 00: 
             0x000816bc: 34 01 00 00: 
             0x000816c0: 91 01 00 00: 
             0x000816c4: 92 01 00 00: 
             0x000816c8: 93 01 00 00: 
             0x000816cc: 94 01 00 00: 
             0x000816d0: 95 01 00 00: 
             0x000816d4: 96 01 00 00: 
             0x000816d8: 97 01 00 00: 
             0x000816dc: 98 01 00 00: 
             0x000816e0: f5 01 00 00: 
             0x000816e4: f6 01 00 00: 
             0x000816e8: f7 01 00 00: 
             0x000816ec: f8 01 00 00: 
             0x000816f0: f9 01 00 00: 
             0x000816f4: fa 01 00 00: 
             0x000816f8: fb 01 00 00: 
             0x000816fc: fc 01 00 00: 
             0x00081700: 59 02 00 00: 
             0x00081704: 5a 02 00 00: 
             0x00081708: 5b 02 00 00: 
             0x0008170c: 5c 02 00 00: 
             0x00081710: 5d 02 00 00: 
             0x00081714: 5e 02 00 00: 
             0x00081718: 5f 02 00 00: 
             0x0008171c: 60 02 00 00: 
             0x00081720: bd 02 00 00: 
             0x00081724: be 02 00 00: 
             0x00081728: bf 02 00 00: 
             0x0008172c: c0 02 00 00: 
             0x00081730: c1 02 00 00: 
             0x00081734: c2 02 00 00: 
             0x00081738: c3 02 00 00: 
             0x0008173c: c4 02 00 00: 

<__timers>:
<.dp.data>:
             0x00081740: 01 00 00 00: 
             0x00081744: 00 00 00 00: 
             0x00081748: 00 00 00 00: 
             0x0008174c: 00 00 00 00: 
             0x00081750: 00 00 00 00: 
             0x00081754: 00 00 00 00: 
             0x00081758: 00 00 00 00: 
             0x0008175c: 00 00 00 00: 

Disassembly of section .dp.data.4 (size: 68)

<.dp.data.4>:
<p_mclk>:
             0x00081760: 00 02 01 00: 

<p_bclk>:
             0x00081764: 00 00 01 00: 

<p_lrclk>:
             0x00081768: 00 01 01 00: 

<bclk>:
             0x0008176c: 06 02 00 00: 

<setup_strobe_port>:
             0x00081770: 00 0b 01 00: 

<setup_data_port>:
             0x00081774: 00 00 10 00: 

<setup_resp_port>:
             0x00081778: 00 0c 01 00: 

<ratio_log2>:
             0x0008177c: 01 00 00 00: 

<.dp.data.4>:
<.dp.data.4>:
<__stdin>:
             0x00081780: 0c 18 08 00: 

<__stdout>:
             0x00081784: 68 18 08 00: 

<__stderr>:
             0x00081788: c4 18 08 00: 

<__sfp_lock>:
             0x0008178c: ff ff ff ff: 
             0x00081790: 00 00 00 00: 

<__sinit_lock>:
             0x00081794: ff ff ff ff: 
             0x00081798: 00 00 00 00: 

<.dp.data.4>:
<__malloc_limit>:
             0x0008179c: f4 fd 0f 00: 

<__malloc_end>:
             0x000817a0: 4c 19 08 00: 

Disassembly of section .dp.data.extmem.setps (size: 4)

<.dp.data.extmem.setps>:
<__extmem_setps_val>:
             0x000817a4: 00 18 00 00: 

Loadable 2 for tile[1] (node "0", tile 1):

Disassembly of section .text (size: 12)

<_start>:
             0x00080000: 07 68:       ldc (ru6)       r0, 0x7
             0x00080002: 02 d0:       bl (u10)        0x2 <_DoSyscall>
             0x00080004: ed 07:       clre (0r)       
             0x00080006: ec 07:       waiteu (0r)     

<_DoSyscall>:
             0x00080008: d0 a6:       mkmsk (rus)     r0, 0x20
             0x0008000a: c0 77:       retsp (u6)      0x0


